ARM GAS  C:\Users\zinch\AppData\Local\Temp\cc0Msi4E.s 			page 1


   1              		.syntax unified
   2              		.cpu cortex-m0plus
   3              		.fpu softvfp
   4              		.eabi_attribute 20, 1
   5              		.eabi_attribute 21, 1
   6              		.eabi_attribute 23, 3
   7              		.eabi_attribute 24, 1
   8              		.eabi_attribute 25, 1
   9              		.eabi_attribute 26, 1
  10              		.eabi_attribute 30, 1
  11              		.eabi_attribute 34, 0
  12              		.eabi_attribute 18, 4
  13              		.thumb
  14              		.syntax unified
  15              		.file	"CapSense_Control.c"
  16              		.text
  17              	.Ltext0:
  18              		.cfi_sections	.debug_frame
  19              		.section	.text.CapSense_Initialize,"ax",%progbits
  20              		.align	2
  21              		.global	CapSense_Initialize
  22              		.code	16
  23              		.thumb_func
  24              		.type	CapSense_Initialize, %function
  25              	CapSense_Initialize:
  26              	.LFB180:
  27              		.file 1 "Generated_Source\\PSoC6\\CapSense_Control.c"
   1:Generated_Source\PSoC6/CapSense_Control.c **** /***************************************************************************//**
   2:Generated_Source\PSoC6/CapSense_Control.c **** * \file CapSense_Control.c
   3:Generated_Source\PSoC6/CapSense_Control.c **** * \version 3.0
   4:Generated_Source\PSoC6/CapSense_Control.c **** *
   5:Generated_Source\PSoC6/CapSense_Control.c **** * \brief
   6:Generated_Source\PSoC6/CapSense_Control.c **** *   This file provides the source code to the Control module API of the Component.
   7:Generated_Source\PSoC6/CapSense_Control.c **** *
   8:Generated_Source\PSoC6/CapSense_Control.c **** * \see CapSense v3.0 Datasheet
   9:Generated_Source\PSoC6/CapSense_Control.c **** *
  10:Generated_Source\PSoC6/CapSense_Control.c **** *//*****************************************************************************
  11:Generated_Source\PSoC6/CapSense_Control.c **** * Copyright (2016-2017), Cypress Semiconductor Corporation.
  12:Generated_Source\PSoC6/CapSense_Control.c **** ********************************************************************************
  13:Generated_Source\PSoC6/CapSense_Control.c **** * This software is owned by Cypress Semiconductor Corporation (Cypress) and is
  14:Generated_Source\PSoC6/CapSense_Control.c **** * protected by and subject to worldwide patent protection (United States and
  15:Generated_Source\PSoC6/CapSense_Control.c **** * foreign), United States copyright laws and international treaty provisions.
  16:Generated_Source\PSoC6/CapSense_Control.c **** * Cypress hereby grants to licensee a personal, non-exclusive, non-transferable
  17:Generated_Source\PSoC6/CapSense_Control.c **** * license to copy, use, modify, create derivative works of, and compile the
  18:Generated_Source\PSoC6/CapSense_Control.c **** * Cypress Source Code and derivative works for the sole purpose of creating
  19:Generated_Source\PSoC6/CapSense_Control.c **** * custom software in support of licensee product to be used only in conjunction
  20:Generated_Source\PSoC6/CapSense_Control.c **** * with a Cypress integrated circuit as specified in the applicable agreement.
  21:Generated_Source\PSoC6/CapSense_Control.c **** * Any reproduction, modification, translation, compilation, or representation of
  22:Generated_Source\PSoC6/CapSense_Control.c **** * this software except as specified above is prohibited without the express
  23:Generated_Source\PSoC6/CapSense_Control.c **** * written permission of Cypress.
  24:Generated_Source\PSoC6/CapSense_Control.c **** *
  25:Generated_Source\PSoC6/CapSense_Control.c **** * Disclaimer: CYPRESS MAKES NO WARRANTY OF ANY KIND, EXPRESS OR IMPLIED, WITH
  26:Generated_Source\PSoC6/CapSense_Control.c **** * REGARD TO THIS MATERIAL, INCLUDING, BUT NOT LIMITED TO, THE IMPLIED
  27:Generated_Source\PSoC6/CapSense_Control.c **** * WARRANTIES OF MERCHANTABILITY AND FITNESS FOR A PARTICULAR PURPOSE.
  28:Generated_Source\PSoC6/CapSense_Control.c **** * Cypress reserves the right to make changes without further notice to the
  29:Generated_Source\PSoC6/CapSense_Control.c **** * materials described herein. Cypress does not assume any liability arising out
  30:Generated_Source\PSoC6/CapSense_Control.c **** * of the application or use of any product or circuit described herein. Cypress
ARM GAS  C:\Users\zinch\AppData\Local\Temp\cc0Msi4E.s 			page 2


  31:Generated_Source\PSoC6/CapSense_Control.c **** * does not authorize its products for use as critical components in life-support
  32:Generated_Source\PSoC6/CapSense_Control.c **** * systems where a malfunction or failure may reasonably be expected to result in
  33:Generated_Source\PSoC6/CapSense_Control.c **** * significant injury to the user. The inclusion of Cypress' product in a life-
  34:Generated_Source\PSoC6/CapSense_Control.c **** * support systems application implies that the manufacturer assumes all risk of
  35:Generated_Source\PSoC6/CapSense_Control.c **** * such use and in doing so indemnifies Cypress against all charges. Use may be
  36:Generated_Source\PSoC6/CapSense_Control.c **** * limited by and subject to the applicable Cypress software license agreement.
  37:Generated_Source\PSoC6/CapSense_Control.c **** *******************************************************************************/
  38:Generated_Source\PSoC6/CapSense_Control.c **** 
  39:Generated_Source\PSoC6/CapSense_Control.c **** #include <stddef.h>
  40:Generated_Source\PSoC6/CapSense_Control.c **** #include "syslib/cy_syslib.h"
  41:Generated_Source\PSoC6/CapSense_Control.c **** #include "syspm/cy_syspm.h"
  42:Generated_Source\PSoC6/CapSense_Control.c **** #include "cyfitter_sysint_cfg.h"
  43:Generated_Source\PSoC6/CapSense_Control.c **** #include "CapSense_Configuration.h"
  44:Generated_Source\PSoC6/CapSense_Control.c **** #include "CapSense_Structure.h"
  45:Generated_Source\PSoC6/CapSense_Control.c **** #include "CapSense_Control.h"
  46:Generated_Source\PSoC6/CapSense_Control.c **** #include "CapSense_Processing.h"
  47:Generated_Source\PSoC6/CapSense_Control.c **** #include "CapSense_Filter.h"
  48:Generated_Source\PSoC6/CapSense_Control.c **** #include "CapSense_Sensing.h"
  49:Generated_Source\PSoC6/CapSense_Control.c **** #include "CapSense_Tuner.h"
  50:Generated_Source\PSoC6/CapSense_Control.c **** 
  51:Generated_Source\PSoC6/CapSense_Control.c **** #if (CapSense_ENABLE == CapSense_SELF_TEST_EN)
  52:Generated_Source\PSoC6/CapSense_Control.c ****     #include "CapSense_SelfTest.h"
  53:Generated_Source\PSoC6/CapSense_Control.c **** #endif
  54:Generated_Source\PSoC6/CapSense_Control.c **** 
  55:Generated_Source\PSoC6/CapSense_Control.c **** #if (0u != CapSense_ADC_EN)
  56:Generated_Source\PSoC6/CapSense_Control.c ****     #include "CapSense_Adc.h"
  57:Generated_Source\PSoC6/CapSense_Control.c **** #endif /* (0u != CapSense_ADC_EN) */
  58:Generated_Source\PSoC6/CapSense_Control.c **** 
  59:Generated_Source\PSoC6/CapSense_Control.c **** #if ((CapSense_ENABLE == CapSense_GES_GLOBAL_EN) ||\
  60:Generated_Source\PSoC6/CapSense_Control.c ****      (CapSense_ENABLE == CapSense_BALLISTIC_MULTIPLIER_EN))
  61:Generated_Source\PSoC6/CapSense_Control.c ****     #include "CapSense_Gesture.h"
  62:Generated_Source\PSoC6/CapSense_Control.c **** #endif /* (CapSense_ENABLE == CapSense_GES_GLOBAL_EN) */
  63:Generated_Source\PSoC6/CapSense_Control.c **** 
  64:Generated_Source\PSoC6/CapSense_Control.c **** /**************************************************************************************************
  65:Generated_Source\PSoC6/CapSense_Control.c **** * Local definition
  66:Generated_Source\PSoC6/CapSense_Control.c **** ***************************************************************************************************
  67:Generated_Source\PSoC6/CapSense_Control.c **** #define CapSense_INIT_DONE   (1u)
  68:Generated_Source\PSoC6/CapSense_Control.c **** #define CapSense_INIT_NEEDED (0u)
  69:Generated_Source\PSoC6/CapSense_Control.c **** 
  70:Generated_Source\PSoC6/CapSense_Control.c **** /**************************************************************************************************
  71:Generated_Source\PSoC6/CapSense_Control.c **** * Local variables
  72:Generated_Source\PSoC6/CapSense_Control.c **** ***************************************************************************************************
  73:Generated_Source\PSoC6/CapSense_Control.c **** static uint8 CapSense_InitVar = CapSense_INIT_NEEDED;
  74:Generated_Source\PSoC6/CapSense_Control.c **** 
  75:Generated_Source\PSoC6/CapSense_Control.c **** /**************************************************************************************************
  76:Generated_Source\PSoC6/CapSense_Control.c **** * Local function
  77:Generated_Source\PSoC6/CapSense_Control.c **** ***************************************************************************************************
  78:Generated_Source\PSoC6/CapSense_Control.c **** #if (CY_SYSPM_DRV_VERSION_MAJOR < 4u)
  79:Generated_Source\PSoC6/CapSense_Control.c ****     static cy_en_syspm_status_t CapSense_SwitchPowerModeCallback(cy_stc_syspm_callback_params_t *ca
  80:Generated_Source\PSoC6/CapSense_Control.c **** #endif
  81:Generated_Source\PSoC6/CapSense_Control.c **** 
  82:Generated_Source\PSoC6/CapSense_Control.c **** /*******************************************************************************
  83:Generated_Source\PSoC6/CapSense_Control.c **** * Function Name: CapSense_Start
  84:Generated_Source\PSoC6/CapSense_Control.c **** ****************************************************************************//**
  85:Generated_Source\PSoC6/CapSense_Control.c **** *
  86:Generated_Source\PSoC6/CapSense_Control.c **** * \brief
  87:Generated_Source\PSoC6/CapSense_Control.c **** *  Initializes the Component hardware and firmware modules. This function is
ARM GAS  C:\Users\zinch\AppData\Local\Temp\cc0Msi4E.s 			page 3


  88:Generated_Source\PSoC6/CapSense_Control.c **** *  called by the application program prior to calling any other function of the
  89:Generated_Source\PSoC6/CapSense_Control.c **** *  Component.
  90:Generated_Source\PSoC6/CapSense_Control.c **** *
  91:Generated_Source\PSoC6/CapSense_Control.c **** * \details
  92:Generated_Source\PSoC6/CapSense_Control.c **** *  This function initializes the Component hardware and firmware modules and
  93:Generated_Source\PSoC6/CapSense_Control.c **** *  is called by the application program prior to calling any other API
  94:Generated_Source\PSoC6/CapSense_Control.c **** *  of the Component. When this function is called, the following tasks are
  95:Generated_Source\PSoC6/CapSense_Control.c **** *  executed as part of the initialization process:
  96:Generated_Source\PSoC6/CapSense_Control.c **** *    1. Initialize the registers of the \ref group_structures variable
  97:Generated_Source\PSoC6/CapSense_Control.c **** *       CapSense_dsRam based on the user selection in the Component
  98:Generated_Source\PSoC6/CapSense_Control.c **** *       configuration wizard.
  99:Generated_Source\PSoC6/CapSense_Control.c **** *    2. Configure the hardware to perform capacitive sensing.
 100:Generated_Source\PSoC6/CapSense_Control.c **** *    3. If SmartSense Auto-tuning is selected for the CSD Tuning mode in the
 101:Generated_Source\PSoC6/CapSense_Control.c **** *       Basic tab, the auto-tuning algorithm is executed to set the optimal
 102:Generated_Source\PSoC6/CapSense_Control.c **** *       values for the hardware parameters of the widgets/sensors.
 103:Generated_Source\PSoC6/CapSense_Control.c **** *    4. Calibrate the sensors and find the optimal values for IDACs of each
 104:Generated_Source\PSoC6/CapSense_Control.c **** *       widget / sensor, if the Enable IDAC auto-calibration is enabled in the
 105:Generated_Source\PSoC6/CapSense_Control.c **** *       CSD Setting or CSX Setting tabs.
 106:Generated_Source\PSoC6/CapSense_Control.c **** *    5. Perform scanning for all the sensors and initialize the baseline history.
 107:Generated_Source\PSoC6/CapSense_Control.c **** *    6. If the firmware filters are enabled in the Advanced General tab, the
 108:Generated_Source\PSoC6/CapSense_Control.c **** *       filter histories are also initialized.
 109:Generated_Source\PSoC6/CapSense_Control.c **** 
 110:Generated_Source\PSoC6/CapSense_Control.c **** *  Any next call of this API repeats an initialization process except for
 111:Generated_Source\PSoC6/CapSense_Control.c **** *  data structure initialization. Therefore, it is possible to change the
 112:Generated_Source\PSoC6/CapSense_Control.c **** *  Component configuration from the application program by writing registers to the
 113:Generated_Source\PSoC6/CapSense_Control.c **** *  data structure and calling this function again. This is also
 114:Generated_Source\PSoC6/CapSense_Control.c **** *  done inside the CapSense_RunTuner() function when a restart command
 115:Generated_Source\PSoC6/CapSense_Control.c **** *  is received.
 116:Generated_Source\PSoC6/CapSense_Control.c **** *
 117:Generated_Source\PSoC6/CapSense_Control.c **** *  When the Component operation is stopped by the CapSense_Stop()
 118:Generated_Source\PSoC6/CapSense_Control.c **** *  function, the CapSense_Start() function repeats an initialization
 119:Generated_Source\PSoC6/CapSense_Control.c **** *  process including data structure initialization.
 120:Generated_Source\PSoC6/CapSense_Control.c **** *
 121:Generated_Source\PSoC6/CapSense_Control.c **** * \return
 122:Generated_Source\PSoC6/CapSense_Control.c **** *  Returns the status of the initialization process. If CY_RET_SUCCESS is not
 123:Generated_Source\PSoC6/CapSense_Control.c **** *  received, some of the initialization fails and the Component may not operate
 124:Generated_Source\PSoC6/CapSense_Control.c **** *  as expected.
 125:Generated_Source\PSoC6/CapSense_Control.c **** *
 126:Generated_Source\PSoC6/CapSense_Control.c **** *******************************************************************************/
 127:Generated_Source\PSoC6/CapSense_Control.c **** cy_status CapSense_Start(void)
 128:Generated_Source\PSoC6/CapSense_Control.c **** {
 129:Generated_Source\PSoC6/CapSense_Control.c ****     cy_status result;
 130:Generated_Source\PSoC6/CapSense_Control.c **** 
 131:Generated_Source\PSoC6/CapSense_Control.c ****     /* Initialize CapSense modules */
 132:Generated_Source\PSoC6/CapSense_Control.c ****     result = CapSense_Initialize();
 133:Generated_Source\PSoC6/CapSense_Control.c **** 
 134:Generated_Source\PSoC6/CapSense_Control.c ****     #if (CapSense_CSD_AUTOTUNE != CapSense_CSD_SS_DIS)
 135:Generated_Source\PSoC6/CapSense_Control.c ****         if (CY_RET_SUCCESS == result)
 136:Generated_Source\PSoC6/CapSense_Control.c ****         {
 137:Generated_Source\PSoC6/CapSense_Control.c ****             result = CapSense_SsAutoTune();
 138:Generated_Source\PSoC6/CapSense_Control.c ****         }
 139:Generated_Source\PSoC6/CapSense_Control.c ****     #endif /* #if (CapSense_CSD_AUTOTUNE != CapSense_CSD_SS_DIS) */
 140:Generated_Source\PSoC6/CapSense_Control.c **** 
 141:Generated_Source\PSoC6/CapSense_Control.c ****     #if ((0u != CapSense_CSX_IDAC_AUTOCAL_EN) || \
 142:Generated_Source\PSoC6/CapSense_Control.c ****         ((CapSense_CSD_AUTOTUNE == CapSense_CSD_SS_DIS) && (0u != CapSense_CSD_IDAC_AUTOCAL_EN)))
 143:Generated_Source\PSoC6/CapSense_Control.c ****         if (CY_RET_SUCCESS == result)
 144:Generated_Source\PSoC6/CapSense_Control.c ****         {
ARM GAS  C:\Users\zinch\AppData\Local\Temp\cc0Msi4E.s 			page 4


 145:Generated_Source\PSoC6/CapSense_Control.c ****             result = CapSense_CalibrateAllWidgets();
 146:Generated_Source\PSoC6/CapSense_Control.c ****         }
 147:Generated_Source\PSoC6/CapSense_Control.c ****     #endif
 148:Generated_Source\PSoC6/CapSense_Control.c **** 
 149:Generated_Source\PSoC6/CapSense_Control.c ****     if (CY_RET_SUCCESS == result)
 150:Generated_Source\PSoC6/CapSense_Control.c ****     {
 151:Generated_Source\PSoC6/CapSense_Control.c ****         result = CapSense_ScanAllWidgets();
 152:Generated_Source\PSoC6/CapSense_Control.c ****     }
 153:Generated_Source\PSoC6/CapSense_Control.c **** 
 154:Generated_Source\PSoC6/CapSense_Control.c ****     while(CapSense_NOT_BUSY != CapSense_IsBusy()){}
 155:Generated_Source\PSoC6/CapSense_Control.c **** 
 156:Generated_Source\PSoC6/CapSense_Control.c ****     CapSense_FtInitialize();
 157:Generated_Source\PSoC6/CapSense_Control.c ****     CapSense_InitializeAllBaselines();
 158:Generated_Source\PSoC6/CapSense_Control.c **** 
 159:Generated_Source\PSoC6/CapSense_Control.c ****     #if(CapSense_ENABLE == CapSense_GES_GLOBAL_EN)
 160:Generated_Source\PSoC6/CapSense_Control.c ****         if (CY_RET_SUCCESS == result)
 161:Generated_Source\PSoC6/CapSense_Control.c ****         {
 162:Generated_Source\PSoC6/CapSense_Control.c ****             CapSense_InitializeGestures();
 163:Generated_Source\PSoC6/CapSense_Control.c ****         }
 164:Generated_Source\PSoC6/CapSense_Control.c ****     #endif /* (CapSense_ENABLE == CapSense_GES_GLOBAL_EN) */
 165:Generated_Source\PSoC6/CapSense_Control.c **** 
 166:Generated_Source\PSoC6/CapSense_Control.c ****     #if (0u != CapSense_BALLISTIC_MULTIPLIER_EN)
 167:Generated_Source\PSoC6/CapSense_Control.c ****         if (CY_RET_SUCCESS == result)
 168:Generated_Source\PSoC6/CapSense_Control.c ****         {
 169:Generated_Source\PSoC6/CapSense_Control.c ****             CapSense_InitializeBallisticMultiplier();
 170:Generated_Source\PSoC6/CapSense_Control.c ****         }
 171:Generated_Source\PSoC6/CapSense_Control.c ****     #endif /* (0u != CapSense_BALLISTIC_MULTIPLIER_EN) */
 172:Generated_Source\PSoC6/CapSense_Control.c **** 
 173:Generated_Source\PSoC6/CapSense_Control.c ****     #if (0u != CapSense_ADC_EN)
 174:Generated_Source\PSoC6/CapSense_Control.c ****         CapSense_AdcInitialize();
 175:Generated_Source\PSoC6/CapSense_Control.c ****     #endif /* (0u != CapSense_ADC_EN) */
 176:Generated_Source\PSoC6/CapSense_Control.c **** 
 177:Generated_Source\PSoC6/CapSense_Control.c ****     return result;
 178:Generated_Source\PSoC6/CapSense_Control.c **** }
 179:Generated_Source\PSoC6/CapSense_Control.c **** 
 180:Generated_Source\PSoC6/CapSense_Control.c **** /*******************************************************************************
 181:Generated_Source\PSoC6/CapSense_Control.c **** * Function Name: CapSense_Initialize
 182:Generated_Source\PSoC6/CapSense_Control.c **** ****************************************************************************//**
 183:Generated_Source\PSoC6/CapSense_Control.c **** *
 184:Generated_Source\PSoC6/CapSense_Control.c **** * \brief
 185:Generated_Source\PSoC6/CapSense_Control.c **** *  This function initializes the CapSense Component.
 186:Generated_Source\PSoC6/CapSense_Control.c **** *
 187:Generated_Source\PSoC6/CapSense_Control.c **** * \details
 188:Generated_Source\PSoC6/CapSense_Control.c **** *  This API initializes all sub-modules of the CapSense Component:
 189:Generated_Source\PSoC6/CapSense_Control.c **** *   - Data Structure - set the default Component parameters defined in the Customizer.
 190:Generated_Source\PSoC6/CapSense_Control.c **** *   - Data Processing - resets all widget statuses.
 191:Generated_Source\PSoC6/CapSense_Control.c **** *   - Tuner - resets tuning state.
 192:Generated_Source\PSoC6/CapSense_Control.c **** *   - Sensing - prepares CSD HW for operation.
 193:Generated_Source\PSoC6/CapSense_Control.c **** *
 194:Generated_Source\PSoC6/CapSense_Control.c **** *  Note that Data Structure module is initialized only once after the reset or
 195:Generated_Source\PSoC6/CapSense_Control.c **** *  CapSense_Stop() API is called. The repeated calls of Initialize API
 196:Generated_Source\PSoC6/CapSense_Control.c **** *  will not re-initialize Data Structure. This is done to preserve Component
 197:Generated_Source\PSoC6/CapSense_Control.c **** *  parameters that user may set in runtime.
 198:Generated_Source\PSoC6/CapSense_Control.c **** *
 199:Generated_Source\PSoC6/CapSense_Control.c **** * \return
 200:Generated_Source\PSoC6/CapSense_Control.c **** *  Return CY_RET_SUCCESS if the initialization was successful.
 201:Generated_Source\PSoC6/CapSense_Control.c **** *
ARM GAS  C:\Users\zinch\AppData\Local\Temp\cc0Msi4E.s 			page 5


 202:Generated_Source\PSoC6/CapSense_Control.c **** *******************************************************************************/
 203:Generated_Source\PSoC6/CapSense_Control.c **** cy_status CapSense_Initialize(void)
 204:Generated_Source\PSoC6/CapSense_Control.c **** {
  28              		.loc 1 204 0
  29              		.cfi_startproc
  30              		@ args = 0, pretend = 0, frame = 0
  31              		@ frame_needed = 0, uses_anonymous_args = 0
  32 0000 10B5     		push	{r4, lr}
  33              		.cfi_def_cfa_offset 8
  34              		.cfi_offset 4, -8
  35              		.cfi_offset 14, -4
 205:Generated_Source\PSoC6/CapSense_Control.c ****     cy_status result;
 206:Generated_Source\PSoC6/CapSense_Control.c **** 
 207:Generated_Source\PSoC6/CapSense_Control.c ****     /* The Data Structure and Tuner are initialized only once */
 208:Generated_Source\PSoC6/CapSense_Control.c ****     if (CapSense_INIT_NEEDED == CapSense_InitVar)
  36              		.loc 1 208 0
  37 0002 084B     		ldr	r3, .L3
  38 0004 1B78     		ldrb	r3, [r3]
  39 0006 002B     		cmp	r3, #0
  40 0008 06D1     		bne	.L2
 209:Generated_Source\PSoC6/CapSense_Control.c ****     {
 210:Generated_Source\PSoC6/CapSense_Control.c ****         CapSense_DsInitialize();
  41              		.loc 1 210 0
  42 000a FFF7FEFF 		bl	CapSense_DsInitialize
  43              	.LVL0:
 211:Generated_Source\PSoC6/CapSense_Control.c ****         CapSense_TuInitialize();
  44              		.loc 1 211 0
  45 000e FFF7FEFF 		bl	CapSense_TuInitialize
  46              	.LVL1:
 212:Generated_Source\PSoC6/CapSense_Control.c ****         CapSense_InitVar = CapSense_INIT_DONE;
  47              		.loc 1 212 0
  48 0012 0122     		movs	r2, #1
  49 0014 034B     		ldr	r3, .L3
  50 0016 1A70     		strb	r2, [r3]
  51              	.L2:
 213:Generated_Source\PSoC6/CapSense_Control.c ****     }
 214:Generated_Source\PSoC6/CapSense_Control.c **** 
 215:Generated_Source\PSoC6/CapSense_Control.c ****     CapSense_DpInitialize();
  52              		.loc 1 215 0
  53 0018 FFF7FEFF 		bl	CapSense_DpInitialize
  54              	.LVL2:
 216:Generated_Source\PSoC6/CapSense_Control.c **** 
 217:Generated_Source\PSoC6/CapSense_Control.c ****     result = CapSense_SsInitialize();
  55              		.loc 1 217 0
  56 001c FFF7FEFF 		bl	CapSense_SsInitialize
  57              	.LVL3:
 218:Generated_Source\PSoC6/CapSense_Control.c **** 
 219:Generated_Source\PSoC6/CapSense_Control.c ****     return result;
 220:Generated_Source\PSoC6/CapSense_Control.c **** }
  58              		.loc 1 220 0
  59              		@ sp needed
  60 0020 10BD     		pop	{r4, pc}
  61              	.L4:
  62 0022 C046     		.align	2
  63              	.L3:
  64 0024 00000000 		.word	.LANCHOR0
  65              		.cfi_endproc
ARM GAS  C:\Users\zinch\AppData\Local\Temp\cc0Msi4E.s 			page 6


  66              	.LFE180:
  67              		.size	CapSense_Initialize, .-CapSense_Initialize
  68              		.section	.text.CapSense_Start,"ax",%progbits
  69              		.align	2
  70              		.global	CapSense_Start
  71              		.code	16
  72              		.thumb_func
  73              		.type	CapSense_Start, %function
  74              	CapSense_Start:
  75              	.LFB179:
 128:Generated_Source\PSoC6/CapSense_Control.c ****     cy_status result;
  76              		.loc 1 128 0
  77              		.cfi_startproc
  78              		@ args = 0, pretend = 0, frame = 0
  79              		@ frame_needed = 0, uses_anonymous_args = 0
  80 0000 10B5     		push	{r4, lr}
  81              		.cfi_def_cfa_offset 8
  82              		.cfi_offset 4, -8
  83              		.cfi_offset 14, -4
 132:Generated_Source\PSoC6/CapSense_Control.c **** 
  84              		.loc 1 132 0
  85 0002 FFF7FEFF 		bl	CapSense_Initialize
  86              	.LVL4:
  87 0006 041E     		subs	r4, r0, #0
  88              	.LVL5:
 143:Generated_Source\PSoC6/CapSense_Control.c ****         {
  89              		.loc 1 143 0
  90 0008 02D1     		bne	.L6
 145:Generated_Source\PSoC6/CapSense_Control.c ****         }
  91              		.loc 1 145 0
  92 000a FFF7FEFF 		bl	CapSense_CalibrateAllWidgets
  93              	.LVL6:
  94 000e 0400     		movs	r4, r0
  95              	.LVL7:
  96              	.L6:
 149:Generated_Source\PSoC6/CapSense_Control.c ****     {
  97              		.loc 1 149 0
  98 0010 002C     		cmp	r4, #0
  99 0012 02D1     		bne	.L8
 151:Generated_Source\PSoC6/CapSense_Control.c ****     }
 100              		.loc 1 151 0
 101 0014 FFF7FEFF 		bl	CapSense_ScanAllWidgets
 102              	.LVL8:
 103 0018 0400     		movs	r4, r0
 104              	.LVL9:
 105              	.L8:
 154:Generated_Source\PSoC6/CapSense_Control.c **** 
 106              		.loc 1 154 0 discriminator 1
 107 001a FFF7FEFF 		bl	CapSense_IsBusy
 108              	.LVL10:
 109 001e 0028     		cmp	r0, #0
 110 0020 FBD1     		bne	.L8
 156:Generated_Source\PSoC6/CapSense_Control.c ****     CapSense_InitializeAllBaselines();
 111              		.loc 1 156 0
 112 0022 FFF7FEFF 		bl	CapSense_FtInitialize
 113              	.LVL11:
 157:Generated_Source\PSoC6/CapSense_Control.c **** 
ARM GAS  C:\Users\zinch\AppData\Local\Temp\cc0Msi4E.s 			page 7


 114              		.loc 1 157 0
 115 0026 FFF7FEFF 		bl	CapSense_InitializeAllBaselines
 116              	.LVL12:
 178:Generated_Source\PSoC6/CapSense_Control.c **** 
 117              		.loc 1 178 0
 118 002a 2000     		movs	r0, r4
 119              		@ sp needed
 120              	.LVL13:
 121 002c 10BD     		pop	{r4, pc}
 122              		.cfi_endproc
 123              	.LFE179:
 124              		.size	CapSense_Start, .-CapSense_Start
 125 002e C046     		.section	.text.CapSense_Stop,"ax",%progbits
 126              		.align	2
 127              		.global	CapSense_Stop
 128              		.code	16
 129              		.thumb_func
 130              		.type	CapSense_Stop, %function
 131              	CapSense_Stop:
 132              	.LFB181:
 221:Generated_Source\PSoC6/CapSense_Control.c **** 
 222:Generated_Source\PSoC6/CapSense_Control.c **** /*******************************************************************************
 223:Generated_Source\PSoC6/CapSense_Control.c **** * Function Name: CapSense_Stop
 224:Generated_Source\PSoC6/CapSense_Control.c **** ****************************************************************************//**
 225:Generated_Source\PSoC6/CapSense_Control.c **** *
 226:Generated_Source\PSoC6/CapSense_Control.c **** * \brief
 227:Generated_Source\PSoC6/CapSense_Control.c **** *  Stops the Component operation.
 228:Generated_Source\PSoC6/CapSense_Control.c **** *
 229:Generated_Source\PSoC6/CapSense_Control.c **** * \details
 230:Generated_Source\PSoC6/CapSense_Control.c **** *  This function stops the Component operation, no sensor scanning can be
 231:Generated_Source\PSoC6/CapSense_Control.c **** *  executed when the Component is stopped. Once stopped, the hardware block may
 232:Generated_Source\PSoC6/CapSense_Control.c **** *  be reconfigured by the application program for any other special usage. The
 233:Generated_Source\PSoC6/CapSense_Control.c **** *  Component operation can be resumed by calling the CapSense_Resume()
 234:Generated_Source\PSoC6/CapSense_Control.c **** *  function or the Component can be reset by calling the
 235:Generated_Source\PSoC6/CapSense_Control.c **** *  CapSense_Start() function.
 236:Generated_Source\PSoC6/CapSense_Control.c **** *
 237:Generated_Source\PSoC6/CapSense_Control.c **** *  This function is called when no scanning is in progress.
 238:Generated_Source\PSoC6/CapSense_Control.c **** *  I.e. CapSense_IsBusy() returns a non-busy status.
 239:Generated_Source\PSoC6/CapSense_Control.c **** *
 240:Generated_Source\PSoC6/CapSense_Control.c **** * \return
 241:Generated_Source\PSoC6/CapSense_Control.c **** *  Returns the status of the stop process. If CY_RET_SUCCESS is not received,
 242:Generated_Source\PSoC6/CapSense_Control.c **** *  the stop process fails and retries may be required.
 243:Generated_Source\PSoC6/CapSense_Control.c **** *
 244:Generated_Source\PSoC6/CapSense_Control.c **** *******************************************************************************/
 245:Generated_Source\PSoC6/CapSense_Control.c **** cy_status CapSense_Stop(void)
 246:Generated_Source\PSoC6/CapSense_Control.c **** {
 133              		.loc 1 246 0
 134              		.cfi_startproc
 135              		@ args = 0, pretend = 0, frame = 0
 136              		@ frame_needed = 0, uses_anonymous_args = 0
 137              		@ link register save eliminated.
 138              	.LVL14:
 247:Generated_Source\PSoC6/CapSense_Control.c ****     cy_status result = CY_RET_SUCCESS;
 248:Generated_Source\PSoC6/CapSense_Control.c **** 
 249:Generated_Source\PSoC6/CapSense_Control.c ****     #if (CapSense_ENABLE == CapSense_ADC_EN)
 250:Generated_Source\PSoC6/CapSense_Control.c ****         /* Release CSD resources */
 251:Generated_Source\PSoC6/CapSense_Control.c ****         result = CapSense_SsReleaseResources();
ARM GAS  C:\Users\zinch\AppData\Local\Temp\cc0Msi4E.s 			page 8


 252:Generated_Source\PSoC6/CapSense_Control.c **** 
 253:Generated_Source\PSoC6/CapSense_Control.c ****         /* Release ADC resources */
 254:Generated_Source\PSoC6/CapSense_Control.c ****         CapSense_AdcStop();
 255:Generated_Source\PSoC6/CapSense_Control.c ****     #endif /* (CapSense_ENABLE == CapSense_ADC_EN) */
 256:Generated_Source\PSoC6/CapSense_Control.c **** 
 257:Generated_Source\PSoC6/CapSense_Control.c ****     CapSense_InitVar = CapSense_INIT_NEEDED;
 139              		.loc 1 257 0
 140 0000 0022     		movs	r2, #0
 141 0002 024B     		ldr	r3, .L10
 142 0004 1A70     		strb	r2, [r3]
 258:Generated_Source\PSoC6/CapSense_Control.c **** 
 259:Generated_Source\PSoC6/CapSense_Control.c ****     return result;
 260:Generated_Source\PSoC6/CapSense_Control.c **** }
 143              		.loc 1 260 0
 144 0006 0020     		movs	r0, #0
 145              		@ sp needed
 146 0008 7047     		bx	lr
 147              	.L11:
 148 000a C046     		.align	2
 149              	.L10:
 150 000c 00000000 		.word	.LANCHOR0
 151              		.cfi_endproc
 152              	.LFE181:
 153              		.size	CapSense_Stop, .-CapSense_Stop
 154              		.section	.text.CapSense_Resume,"ax",%progbits
 155              		.align	2
 156              		.global	CapSense_Resume
 157              		.code	16
 158              		.thumb_func
 159              		.type	CapSense_Resume, %function
 160              	CapSense_Resume:
 161              	.LFB182:
 261:Generated_Source\PSoC6/CapSense_Control.c **** 
 262:Generated_Source\PSoC6/CapSense_Control.c **** /*******************************************************************************
 263:Generated_Source\PSoC6/CapSense_Control.c **** * Function Name: CapSense_Resume
 264:Generated_Source\PSoC6/CapSense_Control.c **** ****************************************************************************//**
 265:Generated_Source\PSoC6/CapSense_Control.c **** *
 266:Generated_Source\PSoC6/CapSense_Control.c **** * \brief
 267:Generated_Source\PSoC6/CapSense_Control.c **** *  Resumes the Component operation if the CapSense_Stop() function was
 268:Generated_Source\PSoC6/CapSense_Control.c **** *  called previously.
 269:Generated_Source\PSoC6/CapSense_Control.c **** *
 270:Generated_Source\PSoC6/CapSense_Control.c **** * \details
 271:Generated_Source\PSoC6/CapSense_Control.c **** *  This function resumes the Component operation if the operation is stopped
 272:Generated_Source\PSoC6/CapSense_Control.c **** *  previously by the CapSense_Stop() function. The following tasks are
 273:Generated_Source\PSoC6/CapSense_Control.c **** *  executed as part of the operation resume process:
 274:Generated_Source\PSoC6/CapSense_Control.c **** *    1. Reset all the Widgets/Sensors statuses.
 275:Generated_Source\PSoC6/CapSense_Control.c **** *    2. Configure the hardware to perform capacitive sensing.
 276:Generated_Source\PSoC6/CapSense_Control.c **** *
 277:Generated_Source\PSoC6/CapSense_Control.c **** * \return
 278:Generated_Source\PSoC6/CapSense_Control.c **** *  Returns the status of the resume process. If CY_RET_SUCCESS is not received,
 279:Generated_Source\PSoC6/CapSense_Control.c **** *  the resume process fails and retries may be required.
 280:Generated_Source\PSoC6/CapSense_Control.c **** *
 281:Generated_Source\PSoC6/CapSense_Control.c **** *******************************************************************************/
 282:Generated_Source\PSoC6/CapSense_Control.c **** cy_status CapSense_Resume(void)
 283:Generated_Source\PSoC6/CapSense_Control.c **** {
 162              		.loc 1 283 0
 163              		.cfi_startproc
ARM GAS  C:\Users\zinch\AppData\Local\Temp\cc0Msi4E.s 			page 9


 164              		@ args = 0, pretend = 0, frame = 0
 165              		@ frame_needed = 0, uses_anonymous_args = 0
 166 0000 10B5     		push	{r4, lr}
 167              		.cfi_def_cfa_offset 8
 168              		.cfi_offset 4, -8
 169              		.cfi_offset 14, -4
 284:Generated_Source\PSoC6/CapSense_Control.c ****     cy_status result;
 285:Generated_Source\PSoC6/CapSense_Control.c **** 
 286:Generated_Source\PSoC6/CapSense_Control.c ****     /* The Tuner are initialized only once in order not to break communication */
 287:Generated_Source\PSoC6/CapSense_Control.c ****     if (CapSense_INIT_NEEDED == CapSense_InitVar)
 170              		.loc 1 287 0
 171 0002 074B     		ldr	r3, .L14
 172 0004 1B78     		ldrb	r3, [r3]
 173 0006 002B     		cmp	r3, #0
 174 0008 04D1     		bne	.L13
 288:Generated_Source\PSoC6/CapSense_Control.c ****     {
 289:Generated_Source\PSoC6/CapSense_Control.c ****         CapSense_TuInitialize();
 175              		.loc 1 289 0
 176 000a FFF7FEFF 		bl	CapSense_TuInitialize
 177              	.LVL15:
 290:Generated_Source\PSoC6/CapSense_Control.c ****         CapSense_InitVar = CapSense_INIT_DONE;
 178              		.loc 1 290 0
 179 000e 0122     		movs	r2, #1
 180 0010 034B     		ldr	r3, .L14
 181 0012 1A70     		strb	r2, [r3]
 182              	.L13:
 291:Generated_Source\PSoC6/CapSense_Control.c ****     }
 292:Generated_Source\PSoC6/CapSense_Control.c ****     CapSense_DpInitialize();
 183              		.loc 1 292 0
 184 0014 FFF7FEFF 		bl	CapSense_DpInitialize
 185              	.LVL16:
 293:Generated_Source\PSoC6/CapSense_Control.c **** 
 294:Generated_Source\PSoC6/CapSense_Control.c ****     result = CapSense_SsInitialize();
 186              		.loc 1 294 0
 187 0018 FFF7FEFF 		bl	CapSense_SsInitialize
 188              	.LVL17:
 295:Generated_Source\PSoC6/CapSense_Control.c **** 
 296:Generated_Source\PSoC6/CapSense_Control.c ****     return result;
 297:Generated_Source\PSoC6/CapSense_Control.c **** }
 189              		.loc 1 297 0
 190              		@ sp needed
 191 001c 10BD     		pop	{r4, pc}
 192              	.L15:
 193 001e C046     		.align	2
 194              	.L14:
 195 0020 00000000 		.word	.LANCHOR0
 196              		.cfi_endproc
 197              	.LFE182:
 198              		.size	CapSense_Resume, .-CapSense_Resume
 199              		.section	.text.CapSense_ProcessAllWidgets,"ax",%progbits
 200              		.align	2
 201              		.global	CapSense_ProcessAllWidgets
 202              		.code	16
 203              		.thumb_func
 204              		.type	CapSense_ProcessAllWidgets, %function
 205              	CapSense_ProcessAllWidgets:
 206              	.LFB183:
ARM GAS  C:\Users\zinch\AppData\Local\Temp\cc0Msi4E.s 			page 10


 298:Generated_Source\PSoC6/CapSense_Control.c **** 
 299:Generated_Source\PSoC6/CapSense_Control.c **** /*******************************************************************************
 300:Generated_Source\PSoC6/CapSense_Control.c **** * Function Name: CapSense_ProcessAllWidgets
 301:Generated_Source\PSoC6/CapSense_Control.c **** ****************************************************************************//**
 302:Generated_Source\PSoC6/CapSense_Control.c **** *
 303:Generated_Source\PSoC6/CapSense_Control.c **** * \brief
 304:Generated_Source\PSoC6/CapSense_Control.c **** *  Performs full data processing of all enabled widgets.
 305:Generated_Source\PSoC6/CapSense_Control.c **** *
 306:Generated_Source\PSoC6/CapSense_Control.c **** * \details
 307:Generated_Source\PSoC6/CapSense_Control.c **** *  This function performs all data processes for all enabled widgets in the
 308:Generated_Source\PSoC6/CapSense_Control.c **** *  Component. The following tasks are executed as part of processing all the
 309:Generated_Source\PSoC6/CapSense_Control.c **** *  widgets:
 310:Generated_Source\PSoC6/CapSense_Control.c **** *    1. Apply raw count filters to the raw counts, if they are enabled in the
 311:Generated_Source\PSoC6/CapSense_Control.c **** *       customizer.
 312:Generated_Source\PSoC6/CapSense_Control.c **** *    2. Update the thresholds if the SmartSense Full Auto-Tuning is enabled in
 313:Generated_Source\PSoC6/CapSense_Control.c **** *       the customizer.
 314:Generated_Source\PSoC6/CapSense_Control.c **** *    3. Update the baselines and difference counts for all the sensors.
 315:Generated_Source\PSoC6/CapSense_Control.c **** *    4. Update the sensor and widget status (on/off), update the centroid for
 316:Generated_Source\PSoC6/CapSense_Control.c **** *       the sliders and the X/Y position for the touchpads.
 317:Generated_Source\PSoC6/CapSense_Control.c **** *
 318:Generated_Source\PSoC6/CapSense_Control.c **** *  This function is called by an application program only after all the enabled
 319:Generated_Source\PSoC6/CapSense_Control.c **** *  widgets (and sensors) in the Component is scanned. Calling this function
 320:Generated_Source\PSoC6/CapSense_Control.c **** *  multiple times without sensor scanning causes unexpected behavior.
 321:Generated_Source\PSoC6/CapSense_Control.c **** *
 322:Generated_Source\PSoC6/CapSense_Control.c **** *  The disabled widgets are not processed by this function. To disable/enable
 323:Generated_Source\PSoC6/CapSense_Control.c **** *  a widget, set the appropriate values in the
 324:Generated_Source\PSoC6/CapSense_Control.c **** *  CapSense_WDGT_ENABLE<RegisterNumber>_PARAM_ID register using the
 325:Generated_Source\PSoC6/CapSense_Control.c **** *  CapSense_SetParam() function.
 326:Generated_Source\PSoC6/CapSense_Control.c **** *
 327:Generated_Source\PSoC6/CapSense_Control.c **** *  If the Ballistic multiplier filter is enabled the Timestamp must be
 328:Generated_Source\PSoC6/CapSense_Control.c **** *  updated before calling this function using the
 329:Generated_Source\PSoC6/CapSense_Control.c **** *  CapSense_IncrementGestureTimestamp() function.
 330:Generated_Source\PSoC6/CapSense_Control.c **** *
 331:Generated_Source\PSoC6/CapSense_Control.c **** *  If the Self-test library is enabled, this function executes the baseline duplication
 332:Generated_Source\PSoC6/CapSense_Control.c **** *  test. Refer to CapSense_CheckBaselineDuplication() for details.
 333:Generated_Source\PSoC6/CapSense_Control.c **** *
 334:Generated_Source\PSoC6/CapSense_Control.c **** * \return
 335:Generated_Source\PSoC6/CapSense_Control.c **** *  Returns the status of the processing operation. If CY_RET_SUCCESS is not received,
 336:Generated_Source\PSoC6/CapSense_Control.c **** *  the processing fails and retries may be required.
 337:Generated_Source\PSoC6/CapSense_Control.c **** *
 338:Generated_Source\PSoC6/CapSense_Control.c **** *******************************************************************************/
 339:Generated_Source\PSoC6/CapSense_Control.c **** cy_status CapSense_ProcessAllWidgets(void)
 340:Generated_Source\PSoC6/CapSense_Control.c **** {
 207              		.loc 1 340 0
 208              		.cfi_startproc
 209              		@ args = 0, pretend = 0, frame = 0
 210              		@ frame_needed = 0, uses_anonymous_args = 0
 211 0000 70B5     		push	{r4, r5, r6, lr}
 212              		.cfi_def_cfa_offset 16
 213              		.cfi_offset 4, -16
 214              		.cfi_offset 5, -12
 215              		.cfi_offset 6, -8
 216              		.cfi_offset 14, -4
 217              	.LVL18:
 341:Generated_Source\PSoC6/CapSense_Control.c ****     uint32 wdgtId;
 342:Generated_Source\PSoC6/CapSense_Control.c ****     cy_status result = CY_RET_SUCCESS;
 343:Generated_Source\PSoC6/CapSense_Control.c ****     CapSense_FLASH_WD_STRUCT const *ptrFlashWdgt;
ARM GAS  C:\Users\zinch\AppData\Local\Temp\cc0Msi4E.s 			page 11


 344:Generated_Source\PSoC6/CapSense_Control.c **** 
 345:Generated_Source\PSoC6/CapSense_Control.c ****     ptrFlashWdgt = CapSense_dsFlash.wdgtArray;
 218              		.loc 1 345 0
 219 0002 0E4E     		ldr	r6, .L20
 342:Generated_Source\PSoC6/CapSense_Control.c ****     CapSense_FLASH_WD_STRUCT const *ptrFlashWdgt;
 220              		.loc 1 342 0
 221 0004 0025     		movs	r5, #0
 346:Generated_Source\PSoC6/CapSense_Control.c **** 
 347:Generated_Source\PSoC6/CapSense_Control.c ****     for (wdgtId = 0u; wdgtId < CapSense_TOTAL_WIDGETS; wdgtId++)
 222              		.loc 1 347 0
 223 0006 0024     		movs	r4, #0
 224 0008 13E0     		b	.L17
 225              	.LVL19:
 226              	.L19:
 348:Generated_Source\PSoC6/CapSense_Control.c ****     {
 349:Generated_Source\PSoC6/CapSense_Control.c ****         if (0uL != CapSense_GET_WIDGET_EN_STATUS(wdgtId))
 227              		.loc 1 349 0
 228 000a 6309     		lsrs	r3, r4, #5
 229 000c 0433     		adds	r3, r3, #4
 230 000e 9B00     		lsls	r3, r3, #2
 231 0010 0B4A     		ldr	r2, .L20+4
 232 0012 9B58     		ldr	r3, [r3, r2]
 233 0014 1F22     		movs	r2, #31
 234 0016 2240     		ands	r2, r4
 235 0018 D340     		lsrs	r3, r3, r2
 236 001a DB07     		lsls	r3, r3, #31
 237 001c 07D5     		bpl	.L18
 350:Generated_Source\PSoC6/CapSense_Control.c ****         {
 351:Generated_Source\PSoC6/CapSense_Control.c ****             switch(CapSense_GET_SENSE_METHOD(ptrFlashWdgt))
 352:Generated_Source\PSoC6/CapSense_Control.c ****             {
 353:Generated_Source\PSoC6/CapSense_Control.c ****             #if (0u != CapSense_TOTAL_CSD_WIDGETS)
 354:Generated_Source\PSoC6/CapSense_Control.c ****                 case CapSense_SENSE_METHOD_CSD_E:
 355:Generated_Source\PSoC6/CapSense_Control.c ****                     result = CapSense_DpProcessCsdWidgetRawCounts(ptrFlashWdgt);
 356:Generated_Source\PSoC6/CapSense_Control.c ****                     CapSense_DpProcessCsdWidgetStatus(wdgtId, ptrFlashWdgt);
 357:Generated_Source\PSoC6/CapSense_Control.c ****                     break;
 358:Generated_Source\PSoC6/CapSense_Control.c ****             #endif /* #if (0u != CapSense_TOTAL_CSD_WIDGETS) */
 359:Generated_Source\PSoC6/CapSense_Control.c **** 
 360:Generated_Source\PSoC6/CapSense_Control.c ****             #if (0u != CapSense_TOTAL_CSX_WIDGETS)
 361:Generated_Source\PSoC6/CapSense_Control.c ****                 case CapSense_SENSE_METHOD_CSX_E:
 362:Generated_Source\PSoC6/CapSense_Control.c ****                     result = CapSense_DpProcessCsxWidgetRawCounts(ptrFlashWdgt);
 238              		.loc 1 362 0
 239 001e 3000     		movs	r0, r6
 240 0020 FFF7FEFF 		bl	CapSense_DpProcessCsxWidgetRawCounts
 241              	.LVL20:
 242 0024 0500     		movs	r5, r0
 243              	.LVL21:
 363:Generated_Source\PSoC6/CapSense_Control.c ****                     CapSense_DpProcessCsxWidgetStatus(wdgtId, ptrFlashWdgt);
 244              		.loc 1 363 0
 245 0026 3100     		movs	r1, r6
 246 0028 2000     		movs	r0, r4
 247              	.LVL22:
 248 002a FFF7FEFF 		bl	CapSense_DpProcessCsxWidgetStatus
 249              	.LVL23:
 250              	.L18:
 364:Generated_Source\PSoC6/CapSense_Control.c ****                     break;
 365:Generated_Source\PSoC6/CapSense_Control.c ****             #endif /* #if (0u != CapSense_TOTAL_CSX_WIDGETS) */
 366:Generated_Source\PSoC6/CapSense_Control.c **** 
ARM GAS  C:\Users\zinch\AppData\Local\Temp\cc0Msi4E.s 			page 12


 367:Generated_Source\PSoC6/CapSense_Control.c ****             default:
 368:Generated_Source\PSoC6/CapSense_Control.c ****                 CY_ASSERT(0 != 0);
 369:Generated_Source\PSoC6/CapSense_Control.c ****                 break;
 370:Generated_Source\PSoC6/CapSense_Control.c ****             }
 371:Generated_Source\PSoC6/CapSense_Control.c **** 
 372:Generated_Source\PSoC6/CapSense_Control.c ****             #if (CapSense_ENABLE == CapSense_TST_BSLN_DUPLICATION_EN)
 373:Generated_Source\PSoC6/CapSense_Control.c ****                 if (CY_RET_SUCCESS != result)
 374:Generated_Source\PSoC6/CapSense_Control.c ****                 {
 375:Generated_Source\PSoC6/CapSense_Control.c ****                     CapSense_UpdateTestResultBaselineDuplication(wdgtId, result);
 376:Generated_Source\PSoC6/CapSense_Control.c ****                     result = CY_RET_BAD_DATA;
 377:Generated_Source\PSoC6/CapSense_Control.c ****                 }
 378:Generated_Source\PSoC6/CapSense_Control.c ****             #endif /* (CapSense_ENABLE == CapSense_TST_BSLN_DUPLICATION_EN) */
 379:Generated_Source\PSoC6/CapSense_Control.c **** 
 380:Generated_Source\PSoC6/CapSense_Control.c ****         }
 381:Generated_Source\PSoC6/CapSense_Control.c ****         ptrFlashWdgt++;
 251              		.loc 1 381 0 discriminator 2
 252 002e 2036     		adds	r6, r6, #32
 253              	.LVL24:
 347:Generated_Source\PSoC6/CapSense_Control.c ****     {
 254              		.loc 1 347 0 discriminator 2
 255 0030 0134     		adds	r4, r4, #1
 256              	.LVL25:
 257              	.L17:
 347:Generated_Source\PSoC6/CapSense_Control.c ****     {
 258              		.loc 1 347 0 is_stmt 0 discriminator 1
 259 0032 012C     		cmp	r4, #1
 260 0034 E9D9     		bls	.L19
 382:Generated_Source\PSoC6/CapSense_Control.c ****     }
 383:Generated_Source\PSoC6/CapSense_Control.c ****     return result;
 384:Generated_Source\PSoC6/CapSense_Control.c **** }
 261              		.loc 1 384 0 is_stmt 1
 262 0036 2800     		movs	r0, r5
 263              		@ sp needed
 264              	.LVL26:
 265              	.LVL27:
 266              	.LVL28:
 267 0038 70BD     		pop	{r4, r5, r6, pc}
 268              	.L21:
 269 003a C046     		.align	2
 270              	.L20:
 271 003c 00000000 		.word	CapSense_dsFlash
 272 0040 00000000 		.word	CapSense_dsRam
 273              		.cfi_endproc
 274              	.LFE183:
 275              		.size	CapSense_ProcessAllWidgets, .-CapSense_ProcessAllWidgets
 276              		.section	.text.CapSense_ProcessWidget,"ax",%progbits
 277              		.align	2
 278              		.global	CapSense_ProcessWidget
 279              		.code	16
 280              		.thumb_func
 281              		.type	CapSense_ProcessWidget, %function
 282              	CapSense_ProcessWidget:
 283              	.LFB184:
 385:Generated_Source\PSoC6/CapSense_Control.c **** 
 386:Generated_Source\PSoC6/CapSense_Control.c **** /*******************************************************************************
 387:Generated_Source\PSoC6/CapSense_Control.c **** * Function Name: CapSense_ProcessWidget
 388:Generated_Source\PSoC6/CapSense_Control.c **** ****************************************************************************//**
ARM GAS  C:\Users\zinch\AppData\Local\Temp\cc0Msi4E.s 			page 13


 389:Generated_Source\PSoC6/CapSense_Control.c **** *
 390:Generated_Source\PSoC6/CapSense_Control.c **** * \brief
 391:Generated_Source\PSoC6/CapSense_Control.c **** *  Performs full data processing of the specified widget if it is enabled.
 392:Generated_Source\PSoC6/CapSense_Control.c **** *
 393:Generated_Source\PSoC6/CapSense_Control.c **** * \details
 394:Generated_Source\PSoC6/CapSense_Control.c **** *  This function performs exactly the same tasks as
 395:Generated_Source\PSoC6/CapSense_Control.c **** *  CapSense_ProcessAllWidgets(), but only for a specified widget. This
 396:Generated_Source\PSoC6/CapSense_Control.c **** *  function can be used along with the CapSense_SetupWidget() and
 397:Generated_Source\PSoC6/CapSense_Control.c **** *  CapSense_Scan() functions to scan and process data for a specific
 398:Generated_Source\PSoC6/CapSense_Control.c **** *  widget. This function is called only after all the sensors in the
 399:Generated_Source\PSoC6/CapSense_Control.c **** *  widgets are scanned. A disabled widget is not processed by this function.
 400:Generated_Source\PSoC6/CapSense_Control.c **** *
 401:Generated_Source\PSoC6/CapSense_Control.c **** *  A pipeline scan method (i.e. during scanning of a widget perform processing
 402:Generated_Source\PSoC6/CapSense_Control.c **** *  of the previously scanned widget) can be implemented using this function and
 403:Generated_Source\PSoC6/CapSense_Control.c **** *  it may reduce the total execution time, increase the refresh rate and
 404:Generated_Source\PSoC6/CapSense_Control.c **** *  decrease the average power consumption.
 405:Generated_Source\PSoC6/CapSense_Control.c **** *
 406:Generated_Source\PSoC6/CapSense_Control.c **** *  If the Ballistic multiplier filter is enabled the Timestamp must be
 407:Generated_Source\PSoC6/CapSense_Control.c **** *  updated before calling this function using the
 408:Generated_Source\PSoC6/CapSense_Control.c **** *  CapSense_IncrementGestureTimestamp() function.
 409:Generated_Source\PSoC6/CapSense_Control.c **** *
 410:Generated_Source\PSoC6/CapSense_Control.c **** *  If the Self-test library is enabled, this function executes the baseline duplication
 411:Generated_Source\PSoC6/CapSense_Control.c **** *  test. Refer to CapSense_CheckBaselineDuplication() for details.
 412:Generated_Source\PSoC6/CapSense_Control.c **** *
 413:Generated_Source\PSoC6/CapSense_Control.c **** * \param widgetId
 414:Generated_Source\PSoC6/CapSense_Control.c **** *  Specifies the ID number of the widget to be processed.
 415:Generated_Source\PSoC6/CapSense_Control.c **** *  A macro for the widget ID can be found in the
 416:Generated_Source\PSoC6/CapSense_Control.c **** *  CapSense Configuration header file defined as
 417:Generated_Source\PSoC6/CapSense_Control.c **** *  CapSense_<WidgetName>_WDGT_ID
 418:Generated_Source\PSoC6/CapSense_Control.c **** *
 419:Generated_Source\PSoC6/CapSense_Control.c **** * \return
 420:Generated_Source\PSoC6/CapSense_Control.c **** *  Returns the status of the widget processing:
 421:Generated_Source\PSoC6/CapSense_Control.c **** *  - CY_RET_SUCCESS - The operation is successfully completed
 422:Generated_Source\PSoC6/CapSense_Control.c **** *  - CY_RET_BAD_PARAM - The input parameter is invalid
 423:Generated_Source\PSoC6/CapSense_Control.c **** *  - CY_RET_INVALID_STATE - The specified widget is disabled
 424:Generated_Source\PSoC6/CapSense_Control.c **** *  - CY_RET_BAD_DATA - The processing is failed
 425:Generated_Source\PSoC6/CapSense_Control.c **** *
 426:Generated_Source\PSoC6/CapSense_Control.c **** *******************************************************************************/
 427:Generated_Source\PSoC6/CapSense_Control.c **** cy_status CapSense_ProcessWidget(uint32 widgetId)
 428:Generated_Source\PSoC6/CapSense_Control.c **** {
 284              		.loc 1 428 0
 285              		.cfi_startproc
 286              		@ args = 0, pretend = 0, frame = 0
 287              		@ frame_needed = 0, uses_anonymous_args = 0
 288              	.LVL29:
 289 0000 70B5     		push	{r4, r5, r6, lr}
 290              		.cfi_def_cfa_offset 16
 291              		.cfi_offset 4, -16
 292              		.cfi_offset 5, -12
 293              		.cfi_offset 6, -8
 294              		.cfi_offset 14, -4
 295 0002 0500     		movs	r5, r0
 296              	.LVL30:
 429:Generated_Source\PSoC6/CapSense_Control.c ****     cy_status result = CY_RET_SUCCESS;
 430:Generated_Source\PSoC6/CapSense_Control.c ****     CapSense_FLASH_WD_STRUCT const *ptrFlashWdgt;
 431:Generated_Source\PSoC6/CapSense_Control.c **** 
 432:Generated_Source\PSoC6/CapSense_Control.c ****     if (widgetId >= CapSense_TOTAL_WIDGETS)
ARM GAS  C:\Users\zinch\AppData\Local\Temp\cc0Msi4E.s 			page 14


 297              		.loc 1 432 0
 298 0004 0128     		cmp	r0, #1
 299 0006 01D8     		bhi	.L26
 429:Generated_Source\PSoC6/CapSense_Control.c ****     cy_status result = CY_RET_SUCCESS;
 300              		.loc 1 429 0
 301 0008 0024     		movs	r4, #0
 302 000a 00E0     		b	.L23
 303              	.L26:
 433:Generated_Source\PSoC6/CapSense_Control.c ****     {
 434:Generated_Source\PSoC6/CapSense_Control.c ****         result = CY_RET_BAD_PARAM;
 304              		.loc 1 434 0
 305 000c 0124     		movs	r4, #1
 306              	.L23:
 307              	.LVL31:
 435:Generated_Source\PSoC6/CapSense_Control.c ****     }
 436:Generated_Source\PSoC6/CapSense_Control.c **** 
 437:Generated_Source\PSoC6/CapSense_Control.c ****     if ((CY_RET_SUCCESS == result) && (0uL == CapSense_GET_WIDGET_EN_STATUS(widgetId)))
 308              		.loc 1 437 0
 309 000e 002C     		cmp	r4, #0
 310 0010 0AD1     		bne	.L24
 311              		.loc 1 437 0 is_stmt 0 discriminator 1
 312 0012 6B09     		lsrs	r3, r5, #5
 313 0014 0433     		adds	r3, r3, #4
 314 0016 9B00     		lsls	r3, r3, #2
 315 0018 0B4A     		ldr	r2, .L28
 316 001a 9B58     		ldr	r3, [r3, r2]
 317 001c 1F22     		movs	r2, #31
 318 001e 2A40     		ands	r2, r5
 319 0020 D340     		lsrs	r3, r3, r2
 320 0022 DB07     		lsls	r3, r3, #31
 321 0024 00D4     		bmi	.L24
 438:Generated_Source\PSoC6/CapSense_Control.c ****     {
 439:Generated_Source\PSoC6/CapSense_Control.c ****         result = CY_RET_INVALID_STATE;
 322              		.loc 1 439 0 is_stmt 1
 323 0026 1134     		adds	r4, r4, #17
 324              	.LVL32:
 325              	.L24:
 440:Generated_Source\PSoC6/CapSense_Control.c ****     }
 441:Generated_Source\PSoC6/CapSense_Control.c **** 
 442:Generated_Source\PSoC6/CapSense_Control.c ****     if (CY_RET_SUCCESS == result)
 326              		.loc 1 442 0
 327 0028 002C     		cmp	r4, #0
 328 002a 0AD1     		bne	.L25
 443:Generated_Source\PSoC6/CapSense_Control.c ****     {
 444:Generated_Source\PSoC6/CapSense_Control.c ****         ptrFlashWdgt = &CapSense_dsFlash.wdgtArray[widgetId];
 329              		.loc 1 444 0
 330 002c 6E01     		lsls	r6, r5, #5
 331 002e 074B     		ldr	r3, .L28+4
 332 0030 F618     		adds	r6, r6, r3
 333              	.LVL33:
 445:Generated_Source\PSoC6/CapSense_Control.c **** 
 446:Generated_Source\PSoC6/CapSense_Control.c ****         switch(CapSense_GET_SENSE_METHOD(ptrFlashWdgt))
 447:Generated_Source\PSoC6/CapSense_Control.c ****         {
 448:Generated_Source\PSoC6/CapSense_Control.c ****         #if (0u != CapSense_TOTAL_CSD_WIDGETS)
 449:Generated_Source\PSoC6/CapSense_Control.c ****             case CapSense_SENSE_METHOD_CSD_E:
 450:Generated_Source\PSoC6/CapSense_Control.c ****                 result = CapSense_DpProcessCsdWidgetRawCounts(ptrFlashWdgt);
 451:Generated_Source\PSoC6/CapSense_Control.c ****                 CapSense_DpProcessCsdWidgetStatus(widgetId, ptrFlashWdgt);
ARM GAS  C:\Users\zinch\AppData\Local\Temp\cc0Msi4E.s 			page 15


 452:Generated_Source\PSoC6/CapSense_Control.c ****                 break;
 453:Generated_Source\PSoC6/CapSense_Control.c ****         #endif /* #if (0u != CapSense_TOTAL_CSD_WIDGETS) */
 454:Generated_Source\PSoC6/CapSense_Control.c **** 
 455:Generated_Source\PSoC6/CapSense_Control.c ****         #if (0u != CapSense_TOTAL_CSX_WIDGETS)
 456:Generated_Source\PSoC6/CapSense_Control.c ****             case CapSense_SENSE_METHOD_CSX_E:
 457:Generated_Source\PSoC6/CapSense_Control.c ****                 result = CapSense_DpProcessCsxWidgetRawCounts(ptrFlashWdgt);
 334              		.loc 1 457 0
 335 0032 3000     		movs	r0, r6
 336              	.LVL34:
 337 0034 FFF7FEFF 		bl	CapSense_DpProcessCsxWidgetRawCounts
 338              	.LVL35:
 339 0038 0400     		movs	r4, r0
 340              	.LVL36:
 458:Generated_Source\PSoC6/CapSense_Control.c ****                 CapSense_DpProcessCsxWidgetStatus(widgetId, ptrFlashWdgt);
 341              		.loc 1 458 0
 342 003a 3100     		movs	r1, r6
 343 003c 2800     		movs	r0, r5
 344              	.LVL37:
 345 003e FFF7FEFF 		bl	CapSense_DpProcessCsxWidgetStatus
 346              	.LVL38:
 347              	.L25:
 459:Generated_Source\PSoC6/CapSense_Control.c ****                 break;
 460:Generated_Source\PSoC6/CapSense_Control.c ****         #endif /* #if (0u != CapSense_TOTAL_CSX_WIDGETS) */
 461:Generated_Source\PSoC6/CapSense_Control.c **** 
 462:Generated_Source\PSoC6/CapSense_Control.c ****         default:
 463:Generated_Source\PSoC6/CapSense_Control.c ****             CY_ASSERT(0 != 0);
 464:Generated_Source\PSoC6/CapSense_Control.c ****             break;
 465:Generated_Source\PSoC6/CapSense_Control.c ****         }
 466:Generated_Source\PSoC6/CapSense_Control.c **** 
 467:Generated_Source\PSoC6/CapSense_Control.c ****         #if (CapSense_ENABLE == CapSense_TST_BSLN_DUPLICATION_EN)
 468:Generated_Source\PSoC6/CapSense_Control.c ****             if (CY_RET_SUCCESS != result)
 469:Generated_Source\PSoC6/CapSense_Control.c ****             {
 470:Generated_Source\PSoC6/CapSense_Control.c ****                 CapSense_UpdateTestResultBaselineDuplication(widgetId, result);
 471:Generated_Source\PSoC6/CapSense_Control.c ****                 result = CY_RET_BAD_DATA;
 472:Generated_Source\PSoC6/CapSense_Control.c ****             }
 473:Generated_Source\PSoC6/CapSense_Control.c ****         #endif /* (CapSense_ENABLE == CapSense_TST_BSLN_DUPLICATION_EN) */
 474:Generated_Source\PSoC6/CapSense_Control.c ****     }
 475:Generated_Source\PSoC6/CapSense_Control.c ****     return result;
 476:Generated_Source\PSoC6/CapSense_Control.c **** }
 348              		.loc 1 476 0
 349 0042 2000     		movs	r0, r4
 350              		@ sp needed
 351              	.LVL39:
 352              	.LVL40:
 353 0044 70BD     		pop	{r4, r5, r6, pc}
 354              	.L29:
 355 0046 C046     		.align	2
 356              	.L28:
 357 0048 00000000 		.word	CapSense_dsRam
 358 004c 00000000 		.word	CapSense_dsFlash
 359              		.cfi_endproc
 360              	.LFE184:
 361              		.size	CapSense_ProcessWidget, .-CapSense_ProcessWidget
 362              		.section	.text.CapSense_ProcessWidgetExt,"ax",%progbits
 363              		.align	2
 364              		.global	CapSense_ProcessWidgetExt
 365              		.code	16
ARM GAS  C:\Users\zinch\AppData\Local\Temp\cc0Msi4E.s 			page 16


 366              		.thumb_func
 367              		.type	CapSense_ProcessWidgetExt, %function
 368              	CapSense_ProcessWidgetExt:
 369              	.LFB185:
 477:Generated_Source\PSoC6/CapSense_Control.c **** 
 478:Generated_Source\PSoC6/CapSense_Control.c **** 
 479:Generated_Source\PSoC6/CapSense_Control.c **** /*******************************************************************************
 480:Generated_Source\PSoC6/CapSense_Control.c **** * Function Name: CapSense_ProcessWidgetExt
 481:Generated_Source\PSoC6/CapSense_Control.c **** ****************************************************************************//**
 482:Generated_Source\PSoC6/CapSense_Control.c **** *
 483:Generated_Source\PSoC6/CapSense_Control.c **** * \brief
 484:Generated_Source\PSoC6/CapSense_Control.c **** *  Performs customized data processing on the selected widget.
 485:Generated_Source\PSoC6/CapSense_Control.c **** *
 486:Generated_Source\PSoC6/CapSense_Control.c **** * \details
 487:Generated_Source\PSoC6/CapSense_Control.c **** *  This function performs data processes for the specified widget specified by
 488:Generated_Source\PSoC6/CapSense_Control.c **** *  the mode parameter. The execution order of the requested operations is from
 489:Generated_Source\PSoC6/CapSense_Control.c **** *  LSB to MSB of the mode parameter. For a different order, this API
 490:Generated_Source\PSoC6/CapSense_Control.c **** *  can be called multiple times with the required mode parameter.
 491:Generated_Source\PSoC6/CapSense_Control.c **** *
 492:Generated_Source\PSoC6/CapSense_Control.c **** *  This function can be used with any of the available scan functions. This
 493:Generated_Source\PSoC6/CapSense_Control.c **** *  function is called only after all the sensors in the specified widget are
 494:Generated_Source\PSoC6/CapSense_Control.c **** *  scanned. Calling this function multiple times with the same mode without
 495:Generated_Source\PSoC6/CapSense_Control.c **** *  sensor scanning causes unexpected behavior. This function ignores the value
 496:Generated_Source\PSoC6/CapSense_Control.c **** *  of the wdgtEnable register.
 497:Generated_Source\PSoC6/CapSense_Control.c **** *
 498:Generated_Source\PSoC6/CapSense_Control.c **** *  The CapSense_PROCESS_CALC_NOISE and
 499:Generated_Source\PSoC6/CapSense_Control.c **** *  CapSense_PROCESS_THRESHOLDS flags are supported by the CSD sensing
 500:Generated_Source\PSoC6/CapSense_Control.c **** *  method only when Auto-tuning mode is enabled.
 501:Generated_Source\PSoC6/CapSense_Control.c **** *
 502:Generated_Source\PSoC6/CapSense_Control.c **** *  The pipeline scan method (i.e. during scanning of a widget, processing
 503:Generated_Source\PSoC6/CapSense_Control.c **** *  of a previously scanned widget is performed) can be implemented using this
 504:Generated_Source\PSoC6/CapSense_Control.c **** *  function and it may reduce the total scan/process time, increase the refresh
 505:Generated_Source\PSoC6/CapSense_Control.c **** *  rate and decrease the power consumption.
 506:Generated_Source\PSoC6/CapSense_Control.c **** *
 507:Generated_Source\PSoC6/CapSense_Control.c **** *  If the Self-test library is enabled, this function executes the baseline duplication
 508:Generated_Source\PSoC6/CapSense_Control.c **** *  test. Refer to CapSense_CheckBaselineDuplication() for details.
 509:Generated_Source\PSoC6/CapSense_Control.c **** *
 510:Generated_Source\PSoC6/CapSense_Control.c **** *  If the Ballistic multiplier filter is enabled the Timestamp must be
 511:Generated_Source\PSoC6/CapSense_Control.c **** *  updated before calling this function using the
 512:Generated_Source\PSoC6/CapSense_Control.c **** *  CapSense_IncrementGestureTimestamp() function.
 513:Generated_Source\PSoC6/CapSense_Control.c **** *
 514:Generated_Source\PSoC6/CapSense_Control.c **** * \param widgetId
 515:Generated_Source\PSoC6/CapSense_Control.c **** *  Specifies the ID number of the widget to be processed.
 516:Generated_Source\PSoC6/CapSense_Control.c **** *  A macro for the widget ID can be found in the CapSense Configuration header
 517:Generated_Source\PSoC6/CapSense_Control.c **** *  file defined as CapSense_<WidgetName>_WDGT_ID.
 518:Generated_Source\PSoC6/CapSense_Control.c **** 
 519:Generated_Source\PSoC6/CapSense_Control.c **** * \param mode
 520:Generated_Source\PSoC6/CapSense_Control.c **** *  Specifies the type of widget processing to be executed for the
 521:Generated_Source\PSoC6/CapSense_Control.c **** *  specified widget:
 522:Generated_Source\PSoC6/CapSense_Control.c **** *    1. Bits [31..6] - Reserved.
 523:Generated_Source\PSoC6/CapSense_Control.c **** *    2. Bits [5..0] - CapSense_PROCESS_ALL - Execute all the tasks.
 524:Generated_Source\PSoC6/CapSense_Control.c **** *    3. Bit [5] - CapSense_PROCESS_STATUS - Update the status (on/off,
 525:Generated_Source\PSoC6/CapSense_Control.c **** *       centroid position).
 526:Generated_Source\PSoC6/CapSense_Control.c **** *    4. Bit [4] - CapSense_PROCESS_THRESHOLDS - Update the thresholds
 527:Generated_Source\PSoC6/CapSense_Control.c **** *       (only in CSD auto-tuning mode).
 528:Generated_Source\PSoC6/CapSense_Control.c **** *    5. Bit [3] - CapSense_PROCESS_CALC_NOISE - Calculate the noise (only in
 529:Generated_Source\PSoC6/CapSense_Control.c **** *       CSD auto-tuning mode).
ARM GAS  C:\Users\zinch\AppData\Local\Temp\cc0Msi4E.s 			page 17


 530:Generated_Source\PSoC6/CapSense_Control.c **** *    6. Bit [2] - CapSense_PROCESS_DIFFCOUNTS - Update the difference counts.
 531:Generated_Source\PSoC6/CapSense_Control.c **** *    7. Bit [1] - CapSense_PROCESS_BASELINE - Update the baselines.
 532:Generated_Source\PSoC6/CapSense_Control.c **** *    8. Bit [0] - CapSense_PROCESS_FILTER - Run the firmware filters.
 533:Generated_Source\PSoC6/CapSense_Control.c **** *
 534:Generated_Source\PSoC6/CapSense_Control.c **** * \return
 535:Generated_Source\PSoC6/CapSense_Control.c **** *  Returns the status of the widget processing operation:
 536:Generated_Source\PSoC6/CapSense_Control.c **** *  - CY_RET_SUCCESS - The processing is successfully performed.
 537:Generated_Source\PSoC6/CapSense_Control.c **** *  - CY_RET_BAD_PARAM - The input parameter is invalid.
 538:Generated_Source\PSoC6/CapSense_Control.c **** *  - CY_RET_BAD_DATA - The processing failed.
 539:Generated_Source\PSoC6/CapSense_Control.c **** *
 540:Generated_Source\PSoC6/CapSense_Control.c **** *******************************************************************************/
 541:Generated_Source\PSoC6/CapSense_Control.c **** cy_status CapSense_ProcessWidgetExt(uint32 widgetId, uint32 mode)
 542:Generated_Source\PSoC6/CapSense_Control.c **** {
 370              		.loc 1 542 0
 371              		.cfi_startproc
 372              		@ args = 0, pretend = 0, frame = 16
 373              		@ frame_needed = 0, uses_anonymous_args = 0
 374              	.LVL41:
 375 0000 F0B5     		push	{r4, r5, r6, r7, lr}
 376              		.cfi_def_cfa_offset 20
 377              		.cfi_offset 4, -20
 378              		.cfi_offset 5, -16
 379              		.cfi_offset 6, -12
 380              		.cfi_offset 7, -8
 381              		.cfi_offset 14, -4
 382 0002 85B0     		sub	sp, sp, #20
 383              		.cfi_def_cfa_offset 40
 384 0004 0600     		movs	r6, r0
 385 0006 0291     		str	r1, [sp, #8]
 386              	.LVL42:
 543:Generated_Source\PSoC6/CapSense_Control.c ****     uint32 snsCount;
 544:Generated_Source\PSoC6/CapSense_Control.c ****     cy_status result = CY_RET_BAD_PARAM;
 545:Generated_Source\PSoC6/CapSense_Control.c ****     CapSense_FLASH_WD_STRUCT const *ptrFlashWdgt;
 546:Generated_Source\PSoC6/CapSense_Control.c ****     CapSense_PTR_FILTER_VARIANT fltrHistV;
 547:Generated_Source\PSoC6/CapSense_Control.c ****     CapSense_RAM_SNS_STRUCT *ptrSnsTmp;
 548:Generated_Source\PSoC6/CapSense_Control.c **** 
 549:Generated_Source\PSoC6/CapSense_Control.c ****     #if (0u != CapSense_TOTAL_CSD_WIDGETS)
 550:Generated_Source\PSoC6/CapSense_Control.c ****         uint32 isProxWdgt;
 551:Generated_Source\PSoC6/CapSense_Control.c ****     #endif
 552:Generated_Source\PSoC6/CapSense_Control.c **** 
 553:Generated_Source\PSoC6/CapSense_Control.c ****     if (widgetId < CapSense_TOTAL_WIDGETS)
 387              		.loc 1 553 0
 388 0008 0128     		cmp	r0, #1
 389 000a 1DD8     		bhi	.L34
 554:Generated_Source\PSoC6/CapSense_Control.c ****     {
 555:Generated_Source\PSoC6/CapSense_Control.c ****         ptrFlashWdgt = &CapSense_dsFlash.wdgtArray[widgetId];
 390              		.loc 1 555 0
 391 000c 4201     		lsls	r2, r0, #5
 392 000e 114B     		ldr	r3, .L35
 393 0010 D518     		adds	r5, r2, r3
 394              	.LVL43:
 556:Generated_Source\PSoC6/CapSense_Control.c ****         snsCount = CapSense_GET_SNS_CNT_BY_PTR(ptrFlashWdgt);
 395              		.loc 1 556 0
 396 0012 2B8B     		ldrh	r3, [r5, #24]
 397              	.LVL44:
 557:Generated_Source\PSoC6/CapSense_Control.c ****         ptrSnsTmp = ptrFlashWdgt->ptr2SnsRam;
 398              		.loc 1 557 0
ARM GAS  C:\Users\zinch\AppData\Local\Temp\cc0Msi4E.s 			page 18


 399 0014 AF68     		ldr	r7, [r5, #8]
 400              	.LVL45:
 558:Generated_Source\PSoC6/CapSense_Control.c ****         fltrHistV.ptr = ptrFlashWdgt->ptr2FltrHistory;
 401              		.loc 1 558 0
 402 0016 EA68     		ldr	r2, [r5, #12]
 403              	.LVL46:
 404 0018 0392     		str	r2, [sp, #12]
 544:Generated_Source\PSoC6/CapSense_Control.c ****     CapSense_FLASH_WD_STRUCT const *ptrFlashWdgt;
 405              		.loc 1 544 0
 406 001a 0122     		movs	r2, #1
 407              	.LVL47:
 408 001c 0192     		str	r2, [sp, #4]
 559:Generated_Source\PSoC6/CapSense_Control.c **** 
 560:Generated_Source\PSoC6/CapSense_Control.c ****         switch(CapSense_GET_SENSE_METHOD(ptrFlashWdgt))
 561:Generated_Source\PSoC6/CapSense_Control.c ****         {
 562:Generated_Source\PSoC6/CapSense_Control.c ****         #if (0u != CapSense_TOTAL_CSD_WIDGETS)
 563:Generated_Source\PSoC6/CapSense_Control.c ****             case CapSense_SENSE_METHOD_CSD_E:
 564:Generated_Source\PSoC6/CapSense_Control.c ****             {
 565:Generated_Source\PSoC6/CapSense_Control.c ****                 /* Determine if widget is type of proximity.
 566:Generated_Source\PSoC6/CapSense_Control.c ****                  * The Proximity widgets use different filters and
 567:Generated_Source\PSoC6/CapSense_Control.c ****                  * therefore have different filter history object structure */
 568:Generated_Source\PSoC6/CapSense_Control.c ****                 isProxWdgt = (CapSense_GET_WIDGET_TYPE(ptrFlashWdgt) == CapSense_WD_PROXIMITY_E) ? 
 569:Generated_Source\PSoC6/CapSense_Control.c **** 
 570:Generated_Source\PSoC6/CapSense_Control.c ****                 /* Run the desired processing for the all CSD widget sensors */
 571:Generated_Source\PSoC6/CapSense_Control.c ****                 for (;snsCount-- > 0u;)
 572:Generated_Source\PSoC6/CapSense_Control.c ****                 {
 573:Generated_Source\PSoC6/CapSense_Control.c ****                     result = CapSense_DpProcessCsdSensorRawCountsExt(ptrFlashWdgt, ptrSnsTmp, fltrH
 574:Generated_Source\PSoC6/CapSense_Control.c **** 
 575:Generated_Source\PSoC6/CapSense_Control.c ****                     #if (CapSense_ENABLE == CapSense_TST_BSLN_DUPLICATION_EN)
 576:Generated_Source\PSoC6/CapSense_Control.c ****                         if (CY_RET_SUCCESS != result)
 577:Generated_Source\PSoC6/CapSense_Control.c ****                         {
 578:Generated_Source\PSoC6/CapSense_Control.c ****                             result = (result | CapSense_TST_LSBYTE) & snsCount;
 579:Generated_Source\PSoC6/CapSense_Control.c ****                         }
 580:Generated_Source\PSoC6/CapSense_Control.c ****                     #endif /* (CapSense_ENABLE == CapSense_TST_BSLN_DUPLICATION_EN) */
 581:Generated_Source\PSoC6/CapSense_Control.c **** 
 582:Generated_Source\PSoC6/CapSense_Control.c ****                     /* Move to the next sensor and filter history objects */
 583:Generated_Source\PSoC6/CapSense_Control.c ****                     ptrSnsTmp++;
 584:Generated_Source\PSoC6/CapSense_Control.c ****                     CapSense_INC_FLTR_OBJ_VARIANT(isProxWdgt, fltrHistV);
 585:Generated_Source\PSoC6/CapSense_Control.c ****                 }
 586:Generated_Source\PSoC6/CapSense_Control.c **** 
 587:Generated_Source\PSoC6/CapSense_Control.c ****                 if (0u != (mode & CapSense_PROCESS_STATUS))
 588:Generated_Source\PSoC6/CapSense_Control.c ****                 {
 589:Generated_Source\PSoC6/CapSense_Control.c ****                     CapSense_DpProcessCsdWidgetStatus(widgetId, ptrFlashWdgt);
 590:Generated_Source\PSoC6/CapSense_Control.c ****                 }
 591:Generated_Source\PSoC6/CapSense_Control.c ****                 break;
 592:Generated_Source\PSoC6/CapSense_Control.c ****             }
 593:Generated_Source\PSoC6/CapSense_Control.c ****         #endif /* #if (0u != CapSense_TOTAL_CSD_WIDGETS) */
 594:Generated_Source\PSoC6/CapSense_Control.c **** 
 595:Generated_Source\PSoC6/CapSense_Control.c ****         #if (0u != CapSense_TOTAL_CSX_WIDGETS)
 596:Generated_Source\PSoC6/CapSense_Control.c ****             case CapSense_SENSE_METHOD_CSX_E:
 597:Generated_Source\PSoC6/CapSense_Control.c **** 
 598:Generated_Source\PSoC6/CapSense_Control.c ****                 #if (0u != CapSense_CSX_MULTIPHASE_TX_EN)
 599:Generated_Source\PSoC6/CapSense_Control.c ****                     if ((0u != (mode & CapSense_PROCESS_DECONVOLUTION)) &&
 600:Generated_Source\PSoC6/CapSense_Control.c ****                         (0u != (ptrFlashWdgt->staticConfig & CapSense_MULTIPHASE_TX_MASK)))
 601:Generated_Source\PSoC6/CapSense_Control.c ****                     {
 602:Generated_Source\PSoC6/CapSense_Control.c ****                         CapSense_DpDeconvolution(ptrFlashWdgt);
 603:Generated_Source\PSoC6/CapSense_Control.c ****                     }
ARM GAS  C:\Users\zinch\AppData\Local\Temp\cc0Msi4E.s 			page 19


 604:Generated_Source\PSoC6/CapSense_Control.c ****                 #endif /* #if (0u != CapSense_CSX_MULTIPHASE_TX_EN) */
 605:Generated_Source\PSoC6/CapSense_Control.c **** 
 606:Generated_Source\PSoC6/CapSense_Control.c ****                 /* Run the desired processing for the all CSX widget sensors */
 607:Generated_Source\PSoC6/CapSense_Control.c ****                 for (;snsCount-- > 0u;)
 409              		.loc 1 607 0
 410 001e 08E0     		b	.L32
 411              	.LVL48:
 412              	.L33:
 608:Generated_Source\PSoC6/CapSense_Control.c ****                 {
 609:Generated_Source\PSoC6/CapSense_Control.c ****                     result = CapSense_DpProcessCsxSensorRawCountsExt(ptrFlashWdgt, ptrSnsTmp, fltrH
 413              		.loc 1 609 0
 414 0020 029B     		ldr	r3, [sp, #8]
 415 0022 039A     		ldr	r2, [sp, #12]
 416 0024 3900     		movs	r1, r7
 417 0026 2800     		movs	r0, r5
 418 0028 FFF7FEFF 		bl	CapSense_DpProcessCsxSensorRawCountsExt
 419              	.LVL49:
 420 002c 0190     		str	r0, [sp, #4]
 421              	.LVL50:
 610:Generated_Source\PSoC6/CapSense_Control.c **** 
 611:Generated_Source\PSoC6/CapSense_Control.c ****                     #if (CapSense_ENABLE == CapSense_TST_BSLN_DUPLICATION_EN)
 612:Generated_Source\PSoC6/CapSense_Control.c ****                         if (CY_RET_SUCCESS != result)
 613:Generated_Source\PSoC6/CapSense_Control.c ****                         {
 614:Generated_Source\PSoC6/CapSense_Control.c ****                             result = (result | CapSense_TST_LSBYTE) & snsCount;
 615:Generated_Source\PSoC6/CapSense_Control.c ****                         }
 616:Generated_Source\PSoC6/CapSense_Control.c ****                     #endif /* (CapSense_ENABLE == CapSense_TST_BSLN_DUPLICATION_EN) */
 617:Generated_Source\PSoC6/CapSense_Control.c **** 
 618:Generated_Source\PSoC6/CapSense_Control.c ****                     /* Move to the next sensor and filter history objects */
 619:Generated_Source\PSoC6/CapSense_Control.c ****                     ptrSnsTmp++;
 422              		.loc 1 619 0
 423 002e 0A37     		adds	r7, r7, #10
 424              	.LVL51:
 607:Generated_Source\PSoC6/CapSense_Control.c ****                 {
 425              		.loc 1 607 0
 426 0030 2300     		movs	r3, r4
 427              	.LVL52:
 428              	.L32:
 429 0032 5C1E     		subs	r4, r3, #1
 430              	.LVL53:
 431 0034 002B     		cmp	r3, #0
 432 0036 F3D1     		bne	.L33
 620:Generated_Source\PSoC6/CapSense_Control.c ****                     CapSense_INC_REG_FLTR_OBJ(fltrHistV);
 621:Generated_Source\PSoC6/CapSense_Control.c ****                 }
 622:Generated_Source\PSoC6/CapSense_Control.c **** 
 623:Generated_Source\PSoC6/CapSense_Control.c ****                 if (0u != (mode & CapSense_PROCESS_STATUS))
 433              		.loc 1 623 0
 434 0038 029B     		ldr	r3, [sp, #8]
 435 003a 9B06     		lsls	r3, r3, #26
 436 003c 06D5     		bpl	.L31
 624:Generated_Source\PSoC6/CapSense_Control.c ****                 {
 625:Generated_Source\PSoC6/CapSense_Control.c ****                     CapSense_DpProcessCsxWidgetStatus(widgetId, ptrFlashWdgt);
 437              		.loc 1 625 0
 438 003e 2900     		movs	r1, r5
 439 0040 3000     		movs	r0, r6
 440 0042 FFF7FEFF 		bl	CapSense_DpProcessCsxWidgetStatus
 441              	.LVL54:
 442 0046 01E0     		b	.L31
ARM GAS  C:\Users\zinch\AppData\Local\Temp\cc0Msi4E.s 			page 20


 443              	.LVL55:
 444              	.L34:
 544:Generated_Source\PSoC6/CapSense_Control.c ****     CapSense_FLASH_WD_STRUCT const *ptrFlashWdgt;
 445              		.loc 1 544 0
 446 0048 0123     		movs	r3, #1
 447 004a 0193     		str	r3, [sp, #4]
 448              	.LVL56:
 449              	.L31:
 626:Generated_Source\PSoC6/CapSense_Control.c ****                 }
 627:Generated_Source\PSoC6/CapSense_Control.c ****                 break;
 628:Generated_Source\PSoC6/CapSense_Control.c ****         #endif /* #if (0u != CapSense_TOTAL_CSX_WIDGETS) */
 629:Generated_Source\PSoC6/CapSense_Control.c **** 
 630:Generated_Source\PSoC6/CapSense_Control.c ****         default:
 631:Generated_Source\PSoC6/CapSense_Control.c ****             CY_ASSERT(0 != 0);
 632:Generated_Source\PSoC6/CapSense_Control.c ****             break;
 633:Generated_Source\PSoC6/CapSense_Control.c ****         }
 634:Generated_Source\PSoC6/CapSense_Control.c **** 
 635:Generated_Source\PSoC6/CapSense_Control.c ****         #if (CapSense_ENABLE == CapSense_TST_BSLN_DUPLICATION_EN)
 636:Generated_Source\PSoC6/CapSense_Control.c ****             if (CY_RET_SUCCESS != result)
 637:Generated_Source\PSoC6/CapSense_Control.c ****             {
 638:Generated_Source\PSoC6/CapSense_Control.c ****                 CapSense_UpdateTestResultBaselineDuplication(widgetId, snsCount);
 639:Generated_Source\PSoC6/CapSense_Control.c ****                 result = CY_RET_BAD_DATA;
 640:Generated_Source\PSoC6/CapSense_Control.c ****             }
 641:Generated_Source\PSoC6/CapSense_Control.c ****         #endif /* (CapSense_ENABLE == CapSense_TST_BSLN_DUPLICATION_EN) */
 642:Generated_Source\PSoC6/CapSense_Control.c **** 
 643:Generated_Source\PSoC6/CapSense_Control.c ****     }
 644:Generated_Source\PSoC6/CapSense_Control.c ****     return result;
 645:Generated_Source\PSoC6/CapSense_Control.c **** }
 450              		.loc 1 645 0
 451 004c 0198     		ldr	r0, [sp, #4]
 452 004e 05B0     		add	sp, sp, #20
 453              		@ sp needed
 454              	.LVL57:
 455 0050 F0BD     		pop	{r4, r5, r6, r7, pc}
 456              	.L36:
 457 0052 C046     		.align	2
 458              	.L35:
 459 0054 00000000 		.word	CapSense_dsFlash
 460              		.cfi_endproc
 461              	.LFE185:
 462              		.size	CapSense_ProcessWidgetExt, .-CapSense_ProcessWidgetExt
 463              		.section	.text.CapSense_ProcessSensorExt,"ax",%progbits
 464              		.align	2
 465              		.global	CapSense_ProcessSensorExt
 466              		.code	16
 467              		.thumb_func
 468              		.type	CapSense_ProcessSensorExt, %function
 469              	CapSense_ProcessSensorExt:
 470              	.LFB186:
 646:Generated_Source\PSoC6/CapSense_Control.c **** 
 647:Generated_Source\PSoC6/CapSense_Control.c **** /*******************************************************************************
 648:Generated_Source\PSoC6/CapSense_Control.c **** * Function Name: CapSense_ProcessSensorExt
 649:Generated_Source\PSoC6/CapSense_Control.c **** ****************************************************************************//**
 650:Generated_Source\PSoC6/CapSense_Control.c **** *
 651:Generated_Source\PSoC6/CapSense_Control.c **** * \brief
 652:Generated_Source\PSoC6/CapSense_Control.c **** *  Performs customized data processing on the selected widget's sensor.
 653:Generated_Source\PSoC6/CapSense_Control.c **** *
ARM GAS  C:\Users\zinch\AppData\Local\Temp\cc0Msi4E.s 			page 21


 654:Generated_Source\PSoC6/CapSense_Control.c **** * \details
 655:Generated_Source\PSoC6/CapSense_Control.c **** *  This function performs data processes for the specified sensor specified by
 656:Generated_Source\PSoC6/CapSense_Control.c **** *  the mode parameter. The execution order of the requested operations is from
 657:Generated_Source\PSoC6/CapSense_Control.c **** *  LSB to MSB of the mode parameter. For a different order, this
 658:Generated_Source\PSoC6/CapSense_Control.c **** *  function can be called multiple times with the required mode parameter.
 659:Generated_Source\PSoC6/CapSense_Control.c **** *
 660:Generated_Source\PSoC6/CapSense_Control.c **** *  This function can be used with any of the available scan functions. This
 661:Generated_Source\PSoC6/CapSense_Control.c **** *  function is called only after a specified sensor in the widget is
 662:Generated_Source\PSoC6/CapSense_Control.c **** *  scanned. Calling this function multiple times with the same mode without
 663:Generated_Source\PSoC6/CapSense_Control.c **** *  sensor scanning causes unexpected behavior. This function ignores the value
 664:Generated_Source\PSoC6/CapSense_Control.c **** *  of the wdgtEnable register.
 665:Generated_Source\PSoC6/CapSense_Control.c **** *
 666:Generated_Source\PSoC6/CapSense_Control.c **** *  The CapSense_PROCESS_CALC_NOISE and
 667:Generated_Source\PSoC6/CapSense_Control.c **** *  CapSense_PROCESS_THRESHOLDS flags are supported by the CSD sensing
 668:Generated_Source\PSoC6/CapSense_Control.c **** *  method only when Auto-tuning mode is enabled.
 669:Generated_Source\PSoC6/CapSense_Control.c **** *
 670:Generated_Source\PSoC6/CapSense_Control.c **** *  The pipeline scan method (i.e. during scanning of a sensor, processing
 671:Generated_Source\PSoC6/CapSense_Control.c **** *  of a previously scanned sensor is performed) can be implemented using this
 672:Generated_Source\PSoC6/CapSense_Control.c **** *  function and it may reduce the total scan/process time, increase the refresh
 673:Generated_Source\PSoC6/CapSense_Control.c **** *  rate and decrease the power consumption.
 674:Generated_Source\PSoC6/CapSense_Control.c **** *
 675:Generated_Source\PSoC6/CapSense_Control.c **** *  If the Self-test library is enabled, this function executes the baseline duplication
 676:Generated_Source\PSoC6/CapSense_Control.c **** *  test. Refer to CapSense_CheckBaselineDuplication() for details.
 677:Generated_Source\PSoC6/CapSense_Control.c **** *
 678:Generated_Source\PSoC6/CapSense_Control.c **** * \param widgetId
 679:Generated_Source\PSoC6/CapSense_Control.c **** *  Specifies the ID number of the widget to process one of its sensors.
 680:Generated_Source\PSoC6/CapSense_Control.c **** *  A macro for the widget ID can be found in the
 681:Generated_Source\PSoC6/CapSense_Control.c **** *  CapSense Configuration header file defined as
 682:Generated_Source\PSoC6/CapSense_Control.c **** *  CapSense_<WidgetName>_WDGT_ID.
 683:Generated_Source\PSoC6/CapSense_Control.c **** *
 684:Generated_Source\PSoC6/CapSense_Control.c **** * \param sensorId
 685:Generated_Source\PSoC6/CapSense_Control.c **** *  Specifies the ID number of the sensor within the widget to process it.
 686:Generated_Source\PSoC6/CapSense_Control.c **** *  A macro for the sensor ID within a specified widget can be found in the
 687:Generated_Source\PSoC6/CapSense_Control.c **** *  CapSense Configuration header file defined as
 688:Generated_Source\PSoC6/CapSense_Control.c **** *  CapSense_<WidgetName>_SNS<SensorNumber>_ID.
 689:Generated_Source\PSoC6/CapSense_Control.c **** *
 690:Generated_Source\PSoC6/CapSense_Control.c **** * \param mode
 691:Generated_Source\PSoC6/CapSense_Control.c **** *  Specifies the type of the sensor processing that needs to be executed for the
 692:Generated_Source\PSoC6/CapSense_Control.c **** *  specified sensor:
 693:Generated_Source\PSoC6/CapSense_Control.c **** *    1. Bits [31..5] - Reserved
 694:Generated_Source\PSoC6/CapSense_Control.c **** *    2. Bits [4..0] - CapSense_PROCESS_ALL - Executes all the tasks
 695:Generated_Source\PSoC6/CapSense_Control.c **** *    3. Bit [4] - CapSense_PROCESS_THRESHOLDS - Updates the thresholds (only
 696:Generated_Source\PSoC6/CapSense_Control.c **** *       in auto-tuning mode)
 697:Generated_Source\PSoC6/CapSense_Control.c **** *    4. Bit [3] - CapSense_PROCESS_CALC_NOISE - Calculates the noise (only
 698:Generated_Source\PSoC6/CapSense_Control.c **** *       in auto-tuning mode)
 699:Generated_Source\PSoC6/CapSense_Control.c **** *    5. Bit [2] - CapSense_PROCESS_DIFFCOUNTS - Updates the difference count
 700:Generated_Source\PSoC6/CapSense_Control.c **** *    6. Bit [1] - CapSense_PROCESS_BASELINE - Updates the baseline
 701:Generated_Source\PSoC6/CapSense_Control.c **** *    7. Bit [0] - CapSense_PROCESS_FILTER - Runs the firmware filters
 702:Generated_Source\PSoC6/CapSense_Control.c **** *
 703:Generated_Source\PSoC6/CapSense_Control.c **** * \return
 704:Generated_Source\PSoC6/CapSense_Control.c **** *  Returns the status of the sensor process operation:
 705:Generated_Source\PSoC6/CapSense_Control.c **** *  - CY_RET_SUCCESS - The processing is successfully performed.
 706:Generated_Source\PSoC6/CapSense_Control.c **** *  - CY_RET_BAD_PARAM - The input parameter is invalid.
 707:Generated_Source\PSoC6/CapSense_Control.c **** *  - CY_RET_BAD_DATA - The processing failed.
 708:Generated_Source\PSoC6/CapSense_Control.c **** *
 709:Generated_Source\PSoC6/CapSense_Control.c **** *******************************************************************************/
 710:Generated_Source\PSoC6/CapSense_Control.c **** cy_status CapSense_ProcessSensorExt(uint32 widgetId, uint32 sensorId, uint32 mode)
ARM GAS  C:\Users\zinch\AppData\Local\Temp\cc0Msi4E.s 			page 22


 711:Generated_Source\PSoC6/CapSense_Control.c **** {
 471              		.loc 1 711 0
 472              		.cfi_startproc
 473              		@ args = 0, pretend = 0, frame = 0
 474              		@ frame_needed = 0, uses_anonymous_args = 0
 475              	.LVL58:
 476 0000 10B5     		push	{r4, lr}
 477              		.cfi_def_cfa_offset 8
 478              		.cfi_offset 4, -8
 479              		.cfi_offset 14, -4
 480              	.LVL59:
 712:Generated_Source\PSoC6/CapSense_Control.c ****     cy_status result = CY_RET_BAD_PARAM;
 713:Generated_Source\PSoC6/CapSense_Control.c ****     CapSense_FLASH_WD_STRUCT const *ptrFlashWdgt;
 714:Generated_Source\PSoC6/CapSense_Control.c ****     CapSense_PTR_FILTER_VARIANT fltrHistV;
 715:Generated_Source\PSoC6/CapSense_Control.c ****     CapSense_RAM_SNS_STRUCT *ptrSnsTmp;
 716:Generated_Source\PSoC6/CapSense_Control.c **** 
 717:Generated_Source\PSoC6/CapSense_Control.c ****     if ((widgetId < CapSense_TOTAL_WIDGETS) && (sensorId < CapSense_GET_SENSOR_COUNT(widgetId)))
 481              		.loc 1 717 0
 482 0002 0128     		cmp	r0, #1
 483 0004 10D8     		bhi	.L39
 484              		.loc 1 717 0 is_stmt 0 discriminator 1
 485 0006 4401     		lsls	r4, r0, #5
 486 0008 094B     		ldr	r3, .L41
 487 000a 1C19     		adds	r4, r3, r4
 488 000c 238B     		ldrh	r3, [r4, #24]
 489 000e 8B42     		cmp	r3, r1
 490 0010 0CD9     		bls	.L40
 491              	.LVL60:
 718:Generated_Source\PSoC6/CapSense_Control.c ****     {
 719:Generated_Source\PSoC6/CapSense_Control.c ****         result = CY_RET_SUCCESS;
 720:Generated_Source\PSoC6/CapSense_Control.c **** 
 721:Generated_Source\PSoC6/CapSense_Control.c ****         ptrFlashWdgt = &CapSense_dsFlash.wdgtArray[widgetId];
 492              		.loc 1 721 0 is_stmt 1
 493 0012 2000     		movs	r0, r4
 494              	.LVL61:
 722:Generated_Source\PSoC6/CapSense_Control.c ****         fltrHistV.ptr = ptrFlashWdgt->ptr2FltrHistory;
 723:Generated_Source\PSoC6/CapSense_Control.c ****         ptrSnsTmp = ptrFlashWdgt->ptr2SnsRam;
 724:Generated_Source\PSoC6/CapSense_Control.c ****         ptrSnsTmp += sensorId;
 495              		.loc 1 724 0
 496 0014 8B00     		lsls	r3, r1, #2
 497 0016 5918     		adds	r1, r3, r1
 498              	.LVL62:
 499 0018 4B00     		lsls	r3, r1, #1
 500 001a A168     		ldr	r1, [r4, #8]
 501 001c C918     		adds	r1, r1, r3
 502              	.LVL63:
 725:Generated_Source\PSoC6/CapSense_Control.c **** 
 726:Generated_Source\PSoC6/CapSense_Control.c ****         switch(CapSense_GET_SENSE_METHOD(ptrFlashWdgt))
 727:Generated_Source\PSoC6/CapSense_Control.c ****         {
 728:Generated_Source\PSoC6/CapSense_Control.c ****         #if (0u != CapSense_TOTAL_CSD_WIDGETS)
 729:Generated_Source\PSoC6/CapSense_Control.c ****             case CapSense_SENSE_METHOD_CSD_E:
 730:Generated_Source\PSoC6/CapSense_Control.c ****                 if (CapSense_WD_PROXIMITY_E == (CapSense_WD_TYPE_ENUM)ptrFlashWdgt->wdgtType)
 731:Generated_Source\PSoC6/CapSense_Control.c ****                 {
 732:Generated_Source\PSoC6/CapSense_Control.c ****                     #if (0u != CapSense_PROX_RC_ALP_FILTER_EN)
 733:Generated_Source\PSoC6/CapSense_Control.c ****                         fltrHistV.ptr = &fltrHistV.ptrAlp[sensorId];
 734:Generated_Source\PSoC6/CapSense_Control.c ****                     #elif (0u != CapSense_PROX_RC_FILTER_EN)
 735:Generated_Source\PSoC6/CapSense_Control.c ****                         fltrHistV.ptr = &fltrHistV.ptrProx[sensorId];
ARM GAS  C:\Users\zinch\AppData\Local\Temp\cc0Msi4E.s 			page 23


 736:Generated_Source\PSoC6/CapSense_Control.c ****                     #endif
 737:Generated_Source\PSoC6/CapSense_Control.c ****                 }
 738:Generated_Source\PSoC6/CapSense_Control.c ****                 else
 739:Generated_Source\PSoC6/CapSense_Control.c ****                 {
 740:Generated_Source\PSoC6/CapSense_Control.c ****                     #if (0u != CapSense_REGULAR_RC_ALP_FILTER_EN)
 741:Generated_Source\PSoC6/CapSense_Control.c ****                         fltrHistV.ptr = &fltrHistV.ptrAlp[sensorId];
 742:Generated_Source\PSoC6/CapSense_Control.c ****                     #elif (0u != CapSense_REGULAR_RC_FILTER_EN)
 743:Generated_Source\PSoC6/CapSense_Control.c ****                         fltrHistV.ptr = &fltrHistV.ptrRegular[sensorId];
 744:Generated_Source\PSoC6/CapSense_Control.c ****                     #endif
 745:Generated_Source\PSoC6/CapSense_Control.c ****                 }
 746:Generated_Source\PSoC6/CapSense_Control.c **** 
 747:Generated_Source\PSoC6/CapSense_Control.c ****                 result = CapSense_DpProcessCsdSensorRawCountsExt(ptrFlashWdgt, ptrSnsTmp, fltrHistV
 748:Generated_Source\PSoC6/CapSense_Control.c ****                 break;
 749:Generated_Source\PSoC6/CapSense_Control.c ****         #endif /* #if (0u != CapSense_TOTAL_CSD_WIDGETS) */
 750:Generated_Source\PSoC6/CapSense_Control.c **** 
 751:Generated_Source\PSoC6/CapSense_Control.c ****         #if (0u != CapSense_TOTAL_CSX_WIDGETS)
 752:Generated_Source\PSoC6/CapSense_Control.c ****             case CapSense_SENSE_METHOD_CSX_E:
 753:Generated_Source\PSoC6/CapSense_Control.c ****                 #if (0u != CapSense_REGULAR_RC_ALP_FILTER_EN)
 754:Generated_Source\PSoC6/CapSense_Control.c ****                     fltrHistV.ptr = &fltrHistV.ptrAlp[sensorId];
 755:Generated_Source\PSoC6/CapSense_Control.c ****                 #elif (0u != CapSense_REGULAR_RC_FILTER_EN)
 756:Generated_Source\PSoC6/CapSense_Control.c ****                     fltrHistV.ptr = &fltrHistV.ptrRegular[sensorId];
 757:Generated_Source\PSoC6/CapSense_Control.c ****                 #endif
 758:Generated_Source\PSoC6/CapSense_Control.c **** 
 759:Generated_Source\PSoC6/CapSense_Control.c ****                 result = CapSense_DpProcessCsxSensorRawCountsExt(ptrFlashWdgt, ptrSnsTmp, fltrHistV
 503              		.loc 1 759 0
 504 001e 1300     		movs	r3, r2
 505 0020 E268     		ldr	r2, [r4, #12]
 506              	.LVL64:
 507 0022 FFF7FEFF 		bl	CapSense_DpProcessCsxSensorRawCountsExt
 508              	.LVL65:
 760:Generated_Source\PSoC6/CapSense_Control.c ****                 break;
 509              		.loc 1 760 0
 510 0026 02E0     		b	.L38
 511              	.LVL66:
 512              	.L39:
 712:Generated_Source\PSoC6/CapSense_Control.c ****     CapSense_FLASH_WD_STRUCT const *ptrFlashWdgt;
 513              		.loc 1 712 0
 514 0028 0120     		movs	r0, #1
 515              	.LVL67:
 516 002a 00E0     		b	.L38
 517              	.LVL68:
 518              	.L40:
 519 002c 0120     		movs	r0, #1
 520              	.LVL69:
 521              	.L38:
 761:Generated_Source\PSoC6/CapSense_Control.c ****         #endif /* #if (0u != CapSense_TOTAL_CSX_WIDGETS) */
 762:Generated_Source\PSoC6/CapSense_Control.c **** 
 763:Generated_Source\PSoC6/CapSense_Control.c ****         default:
 764:Generated_Source\PSoC6/CapSense_Control.c ****             CY_ASSERT(0 != 0);
 765:Generated_Source\PSoC6/CapSense_Control.c ****             break;
 766:Generated_Source\PSoC6/CapSense_Control.c ****         }
 767:Generated_Source\PSoC6/CapSense_Control.c **** 
 768:Generated_Source\PSoC6/CapSense_Control.c ****         #if (CapSense_ENABLE == CapSense_TST_BSLN_DUPLICATION_EN)
 769:Generated_Source\PSoC6/CapSense_Control.c ****             if (CY_RET_SUCCESS != result)
 770:Generated_Source\PSoC6/CapSense_Control.c ****             {
 771:Generated_Source\PSoC6/CapSense_Control.c ****                 CapSense_UpdateTestResultBaselineDuplication(widgetId, sensorId);
 772:Generated_Source\PSoC6/CapSense_Control.c ****                 result = CY_RET_BAD_DATA;
ARM GAS  C:\Users\zinch\AppData\Local\Temp\cc0Msi4E.s 			page 24


 773:Generated_Source\PSoC6/CapSense_Control.c ****             }
 774:Generated_Source\PSoC6/CapSense_Control.c ****         #endif /* (CapSense_ENABLE == CapSense_TST_BSLN_DUPLICATION_EN) */
 775:Generated_Source\PSoC6/CapSense_Control.c **** 
 776:Generated_Source\PSoC6/CapSense_Control.c ****     }
 777:Generated_Source\PSoC6/CapSense_Control.c ****     return result;
 778:Generated_Source\PSoC6/CapSense_Control.c **** }
 522              		.loc 1 778 0
 523              		@ sp needed
 524 002e 10BD     		pop	{r4, pc}
 525              	.L42:
 526              		.align	2
 527              	.L41:
 528 0030 00000000 		.word	CapSense_dsFlash
 529              		.cfi_endproc
 530              	.LFE186:
 531              		.size	CapSense_ProcessSensorExt, .-CapSense_ProcessSensorExt
 532              		.section	.text.CapSense_Sleep,"ax",%progbits
 533              		.align	2
 534              		.global	CapSense_Sleep
 535              		.code	16
 536              		.thumb_func
 537              		.type	CapSense_Sleep, %function
 538              	CapSense_Sleep:
 539              	.LFB187:
 779:Generated_Source\PSoC6/CapSense_Control.c **** 
 780:Generated_Source\PSoC6/CapSense_Control.c **** /*******************************************************************************
 781:Generated_Source\PSoC6/CapSense_Control.c **** * Function Name: CapSense_Sleep
 782:Generated_Source\PSoC6/CapSense_Control.c **** ****************************************************************************//**
 783:Generated_Source\PSoC6/CapSense_Control.c **** *
 784:Generated_Source\PSoC6/CapSense_Control.c **** * \brief
 785:Generated_Source\PSoC6/CapSense_Control.c **** *  Prepares the Component for deep sleep.
 786:Generated_Source\PSoC6/CapSense_Control.c **** *
 787:Generated_Source\PSoC6/CapSense_Control.c **** * \details
 788:Generated_Source\PSoC6/CapSense_Control.c **** *  Currently this function is empty and exists as a place for future updates,
 789:Generated_Source\PSoC6/CapSense_Control.c **** *  this function will be used to prepare the Component to enter deep sleep.
 790:Generated_Source\PSoC6/CapSense_Control.c **** *
 791:Generated_Source\PSoC6/CapSense_Control.c **** *******************************************************************************/
 792:Generated_Source\PSoC6/CapSense_Control.c **** void CapSense_Sleep(void)
 793:Generated_Source\PSoC6/CapSense_Control.c **** {
 540              		.loc 1 793 0
 541              		.cfi_startproc
 542              		@ args = 0, pretend = 0, frame = 0
 543              		@ frame_needed = 0, uses_anonymous_args = 0
 544              		@ link register save eliminated.
 794:Generated_Source\PSoC6/CapSense_Control.c **** }
 545              		.loc 1 794 0
 546              		@ sp needed
 547 0000 7047     		bx	lr
 548              		.cfi_endproc
 549              	.LFE187:
 550              		.size	CapSense_Sleep, .-CapSense_Sleep
 551 0002 C046     		.section	.text.CapSense_Wakeup,"ax",%progbits
 552              		.align	2
 553              		.global	CapSense_Wakeup
 554              		.code	16
 555              		.thumb_func
 556              		.type	CapSense_Wakeup, %function
ARM GAS  C:\Users\zinch\AppData\Local\Temp\cc0Msi4E.s 			page 25


 557              	CapSense_Wakeup:
 558              	.LFB188:
 795:Generated_Source\PSoC6/CapSense_Control.c **** 
 796:Generated_Source\PSoC6/CapSense_Control.c **** 
 797:Generated_Source\PSoC6/CapSense_Control.c **** /*******************************************************************************
 798:Generated_Source\PSoC6/CapSense_Control.c **** * Function Name: CapSense_Wakeup
 799:Generated_Source\PSoC6/CapSense_Control.c **** ****************************************************************************//**
 800:Generated_Source\PSoC6/CapSense_Control.c **** *
 801:Generated_Source\PSoC6/CapSense_Control.c **** * \brief
 802:Generated_Source\PSoC6/CapSense_Control.c **** *  Resumes the Component after sleep.
 803:Generated_Source\PSoC6/CapSense_Control.c **** *
 804:Generated_Source\PSoC6/CapSense_Control.c **** * \details
 805:Generated_Source\PSoC6/CapSense_Control.c **** *  Resumes the Component after sleep. This function shall be used to resume
 806:Generated_Source\PSoC6/CapSense_Control.c **** *  the Component after exiting deep sleep.
 807:Generated_Source\PSoC6/CapSense_Control.c **** *
 808:Generated_Source\PSoC6/CapSense_Control.c **** *******************************************************************************/
 809:Generated_Source\PSoC6/CapSense_Control.c **** void CapSense_Wakeup(void)
 810:Generated_Source\PSoC6/CapSense_Control.c **** {
 559              		.loc 1 810 0
 560              		.cfi_startproc
 561              		@ args = 0, pretend = 0, frame = 0
 562              		@ frame_needed = 0, uses_anonymous_args = 0
 563              		@ link register save eliminated.
 811:Generated_Source\PSoC6/CapSense_Control.c ****     #if(CapSense_BLOCK_ANALOG_WAKEUP_DELAY_US > 0uL)
 812:Generated_Source\PSoC6/CapSense_Control.c ****         Cy_SysLib_DelayUs(CapSense_BLOCK_ANALOG_WAKEUP_DELAY_US);
 813:Generated_Source\PSoC6/CapSense_Control.c ****     #endif /* (CapSense_BLOCK_ANALOG_WAKEUP_DELAY_US > 0uL) */
 814:Generated_Source\PSoC6/CapSense_Control.c **** }
 564              		.loc 1 814 0
 565              		@ sp needed
 566 0000 7047     		bx	lr
 567              		.cfi_endproc
 568              	.LFE188:
 569              		.size	CapSense_Wakeup, .-CapSense_Wakeup
 570 0002 C046     		.section	.text.CapSense_DeepSleepCallback,"ax",%progbits
 571              		.align	2
 572              		.global	CapSense_DeepSleepCallback
 573              		.code	16
 574              		.thumb_func
 575              		.type	CapSense_DeepSleepCallback, %function
 576              	CapSense_DeepSleepCallback:
 577              	.LFB189:
 815:Generated_Source\PSoC6/CapSense_Control.c **** 
 816:Generated_Source\PSoC6/CapSense_Control.c **** 
 817:Generated_Source\PSoC6/CapSense_Control.c **** #if (CY_SYSPM_DRV_VERSION_MAJOR < 4u)
 818:Generated_Source\PSoC6/CapSense_Control.c ****     /*******************************************************************************
 819:Generated_Source\PSoC6/CapSense_Control.c ****     * Function Name: CapSense_DeepSleepCallback
 820:Generated_Source\PSoC6/CapSense_Control.c ****     ****************************************************************************//**
 821:Generated_Source\PSoC6/CapSense_Control.c ****     *
 822:Generated_Source\PSoC6/CapSense_Control.c ****     * \brief
 823:Generated_Source\PSoC6/CapSense_Control.c ****     *  Handles Active to DeepSleep power mode transition for the CapSense
 824:Generated_Source\PSoC6/CapSense_Control.c ****     *  Component. This function is used when the major version of the SysPm driver
 825:Generated_Source\PSoC6/CapSense_Control.c ****     *  is less than 4.
 826:Generated_Source\PSoC6/CapSense_Control.c ****     *
 827:Generated_Source\PSoC6/CapSense_Control.c ****     * \details
 828:Generated_Source\PSoC6/CapSense_Control.c ****     *  This function handles Active to DeepSleep power mode transition
 829:Generated_Source\PSoC6/CapSense_Control.c ****     *  for the CapSense Component.
 830:Generated_Source\PSoC6/CapSense_Control.c ****     *  Calling this function directly by application layer is not recommended.
ARM GAS  C:\Users\zinch\AppData\Local\Temp\cc0Msi4E.s 			page 26


 831:Generated_Source\PSoC6/CapSense_Control.c ****     *  Instead, Cy_SysPm_DeepSleep() should be used for the Active to DeepSleep
 832:Generated_Source\PSoC6/CapSense_Control.c ****     *  power mode transition of the device.
 833:Generated_Source\PSoC6/CapSense_Control.c ****     *
 834:Generated_Source\PSoC6/CapSense_Control.c ****     *  For proper operation of the CapSense Component during the Active to
 835:Generated_Source\PSoC6/CapSense_Control.c ****     *  DeepSleep mode transition, a callback to this API should be registered
 836:Generated_Source\PSoC6/CapSense_Control.c ****     *  using the Cy_SysPm_RegisterCallback() function with CY_SYSPM_DEEPSLEEP
 837:Generated_Source\PSoC6/CapSense_Control.c ****     *  type. Once the callback is registered, this function is called by the
 838:Generated_Source\PSoC6/CapSense_Control.c ****     *  Cy_SysPm_DeepSleep() function to prepare the Component to the device
 839:Generated_Source\PSoC6/CapSense_Control.c ****     *  power mode transition.
 840:Generated_Source\PSoC6/CapSense_Control.c ****     *
 841:Generated_Source\PSoC6/CapSense_Control.c ****     *  When this function is called with CY_SYSPM_CHECK_READY as input, this
 842:Generated_Source\PSoC6/CapSense_Control.c ****     *  function returns CY_SYSPM_SUCCESS if no scanning is in progress, otherwise
 843:Generated_Source\PSoC6/CapSense_Control.c ****     *  CY_SYSPM_FAIL is returned. If CY_SYSPM_FAIL status is returned, a device
 844:Generated_Source\PSoC6/CapSense_Control.c ****     *  cannot change the power mode without completing the current scan as
 845:Generated_Source\PSoC6/CapSense_Control.c ****     *  a transition to DeepSleep during the scan can disrupt the Component
 846:Generated_Source\PSoC6/CapSense_Control.c ****     *  operation.
 847:Generated_Source\PSoC6/CapSense_Control.c ****     *
 848:Generated_Source\PSoC6/CapSense_Control.c ****     * \param callbackParams
 849:Generated_Source\PSoC6/CapSense_Control.c ****     *  Refer to the description of the cy_stc_syspm_callback_params_t type in the
 850:Generated_Source\PSoC6/CapSense_Control.c ****     *  Peripheral Driver Library documentation.
 851:Generated_Source\PSoC6/CapSense_Control.c ****     *
 852:Generated_Source\PSoC6/CapSense_Control.c ****     * \return
 853:Generated_Source\PSoC6/CapSense_Control.c ****     *  Returns the status of the operation requested by the mode parameter:
 854:Generated_Source\PSoC6/CapSense_Control.c ****     *  - CY_SYSPM_SUCCESS  - DeepSleep power mode can be entered.
 855:Generated_Source\PSoC6/CapSense_Control.c ****     *  - CY_SYSPM_FAIL     - DeepSleep power mode cannot be entered.
 856:Generated_Source\PSoC6/CapSense_Control.c ****     *
 857:Generated_Source\PSoC6/CapSense_Control.c ****     *******************************************************************************/
 858:Generated_Source\PSoC6/CapSense_Control.c ****     cy_en_syspm_status_t CapSense_DeepSleepCallback(cy_stc_syspm_callback_params_t *callbackParams)
 859:Generated_Source\PSoC6/CapSense_Control.c ****     {
 860:Generated_Source\PSoC6/CapSense_Control.c ****         return(CapSense_SwitchPowerModeCallback(callbackParams));
 861:Generated_Source\PSoC6/CapSense_Control.c ****     }
 862:Generated_Source\PSoC6/CapSense_Control.c **** 
 863:Generated_Source\PSoC6/CapSense_Control.c **** 
 864:Generated_Source\PSoC6/CapSense_Control.c ****     /*******************************************************************************
 865:Generated_Source\PSoC6/CapSense_Control.c ****     * Function Name: CapSense_EnterLowPowerCallback
 866:Generated_Source\PSoC6/CapSense_Control.c ****     ****************************************************************************//**
 867:Generated_Source\PSoC6/CapSense_Control.c ****     *
 868:Generated_Source\PSoC6/CapSense_Control.c ****     * \brief
 869:Generated_Source\PSoC6/CapSense_Control.c ****     *  Handles Active to Low Power Active (LPActive) power mode transition for
 870:Generated_Source\PSoC6/CapSense_Control.c ****     *  the CapSense Component. This function is used when the major version
 871:Generated_Source\PSoC6/CapSense_Control.c ****     *  of the SysPm driver is less than 4.
 872:Generated_Source\PSoC6/CapSense_Control.c ****     *
 873:Generated_Source\PSoC6/CapSense_Control.c ****     * \details
 874:Generated_Source\PSoC6/CapSense_Control.c ****     *  This function handles the Active to LPActive power mode transition for
 875:Generated_Source\PSoC6/CapSense_Control.c ****     *  the CapSense Component.
 876:Generated_Source\PSoC6/CapSense_Control.c ****     *  Calling this function directly by application layer is not recommended.
 877:Generated_Source\PSoC6/CapSense_Control.c ****     *  Instead, Cy_SysPm_EnterLpMode() should be used for the Active to LPActive
 878:Generated_Source\PSoC6/CapSense_Control.c ****     *  power mode transition of the device.
 879:Generated_Source\PSoC6/CapSense_Control.c ****     *
 880:Generated_Source\PSoC6/CapSense_Control.c ****     *  For proper operation of the CapSense Component during the Active to
 881:Generated_Source\PSoC6/CapSense_Control.c ****     *  LPActive mode transition, a callback to this function should be registered
 882:Generated_Source\PSoC6/CapSense_Control.c ****     *  using the Cy_SysPm_RegisterCallback() function with CY_SYSPM_ENTER_LP_MODE
 883:Generated_Source\PSoC6/CapSense_Control.c ****     *  type. Once the callback is registered, this function is called by the
 884:Generated_Source\PSoC6/CapSense_Control.c ****     *  Cy_SysPm_EnterLpMode() function to prepare the Component to the device
 885:Generated_Source\PSoC6/CapSense_Control.c ****     *  power mode transition.
 886:Generated_Source\PSoC6/CapSense_Control.c ****     *
 887:Generated_Source\PSoC6/CapSense_Control.c ****     *  When this function is called with CY_SYSPM_CHECK_READY as input, this
ARM GAS  C:\Users\zinch\AppData\Local\Temp\cc0Msi4E.s 			page 27


 888:Generated_Source\PSoC6/CapSense_Control.c ****     *  function returns CY_SYSPM_SUCCESS if no scanning is in progress, otherwise
 889:Generated_Source\PSoC6/CapSense_Control.c ****     *  CY_SYSPM_FAIL is returned. If CY_SYSPM_FAIL status is returned, a device
 890:Generated_Source\PSoC6/CapSense_Control.c ****     *  cannot change the power mode without completing the current scan as
 891:Generated_Source\PSoC6/CapSense_Control.c ****     *  a transition to LPActive during the scan can disrupt the Component
 892:Generated_Source\PSoC6/CapSense_Control.c ****     *  operation.
 893:Generated_Source\PSoC6/CapSense_Control.c ****     *
 894:Generated_Source\PSoC6/CapSense_Control.c ****     * \param callbackParams
 895:Generated_Source\PSoC6/CapSense_Control.c ****     *  Refer to the description of the cy_stc_syspm_callback_params_t type in the
 896:Generated_Source\PSoC6/CapSense_Control.c ****     *  Peripheral Driver Library documentation.
 897:Generated_Source\PSoC6/CapSense_Control.c ****     *
 898:Generated_Source\PSoC6/CapSense_Control.c ****     * \return
 899:Generated_Source\PSoC6/CapSense_Control.c ****     *  Returns the status of the operation requested by the mode parameter:
 900:Generated_Source\PSoC6/CapSense_Control.c ****     *  - CY_SYSPM_SUCCESS  - LPActive power mode can be entered.
 901:Generated_Source\PSoC6/CapSense_Control.c ****     *  - CY_SYSPM_FAIL     - LPActive power mode cannot be entered.
 902:Generated_Source\PSoC6/CapSense_Control.c ****     *
 903:Generated_Source\PSoC6/CapSense_Control.c ****     *******************************************************************************/
 904:Generated_Source\PSoC6/CapSense_Control.c ****     cy_en_syspm_status_t CapSense_EnterLowPowerCallback(cy_stc_syspm_callback_params_t *callbackPar
 905:Generated_Source\PSoC6/CapSense_Control.c ****     {
 906:Generated_Source\PSoC6/CapSense_Control.c ****         return(CapSense_SwitchPowerModeCallback(callbackParams));
 907:Generated_Source\PSoC6/CapSense_Control.c ****     }
 908:Generated_Source\PSoC6/CapSense_Control.c **** 
 909:Generated_Source\PSoC6/CapSense_Control.c **** 
 910:Generated_Source\PSoC6/CapSense_Control.c ****     /*******************************************************************************
 911:Generated_Source\PSoC6/CapSense_Control.c ****     * Function Name: CapSense_ExitLowPowerCallback
 912:Generated_Source\PSoC6/CapSense_Control.c ****     ****************************************************************************//**
 913:Generated_Source\PSoC6/CapSense_Control.c ****     *
 914:Generated_Source\PSoC6/CapSense_Control.c ****     * \brief
 915:Generated_Source\PSoC6/CapSense_Control.c ****     *  Handles Low Power Active (LPActive) to Active power mode transition for
 916:Generated_Source\PSoC6/CapSense_Control.c ****     *  the CapSense Component. This function is used when the major version
 917:Generated_Source\PSoC6/CapSense_Control.c ****     *  of the SysPm driver is less than 4.
 918:Generated_Source\PSoC6/CapSense_Control.c ****     *
 919:Generated_Source\PSoC6/CapSense_Control.c ****     * \details
 920:Generated_Source\PSoC6/CapSense_Control.c ****     *  This function handles LPActive to Active power mode transition for
 921:Generated_Source\PSoC6/CapSense_Control.c ****     *  the CapSense Component.
 922:Generated_Source\PSoC6/CapSense_Control.c ****     *  Calling this function directly by application layer is not recommended.
 923:Generated_Source\PSoC6/CapSense_Control.c ****     *  Instead, Cy_SysPm_ExitLpMode() should be used for the LPActive to Active
 924:Generated_Source\PSoC6/CapSense_Control.c ****     *  power mode transition of the device.
 925:Generated_Source\PSoC6/CapSense_Control.c ****     *
 926:Generated_Source\PSoC6/CapSense_Control.c ****     *  For proper operation of the CapSense Component during the LPActive to
 927:Generated_Source\PSoC6/CapSense_Control.c ****     *  Active mode transition, a callback to this function should be registered
 928:Generated_Source\PSoC6/CapSense_Control.c ****     *  using Cy_SysPm_RegisterCallback() function with CY_SYSPM_EXIT_LP_MODE
 929:Generated_Source\PSoC6/CapSense_Control.c ****     *  type. Once the callback is registered, this function is called by the
 930:Generated_Source\PSoC6/CapSense_Control.c ****     *  Cy_SysPm_ExitLpMode() function to prepare the Component to the device
 931:Generated_Source\PSoC6/CapSense_Control.c ****     *  power mode transition.
 932:Generated_Source\PSoC6/CapSense_Control.c ****     *
 933:Generated_Source\PSoC6/CapSense_Control.c ****     *  When this function is called with CY_SYSPM_CHECK_READY as input, this
 934:Generated_Source\PSoC6/CapSense_Control.c ****     *  function returns CY_SYSPM_SUCCESS if no scanning is in progress, otherwise
 935:Generated_Source\PSoC6/CapSense_Control.c ****     *  CY_SYSPM_FAIL is returned. If CY_SYSPM_FAIL status is returned, a device
 936:Generated_Source\PSoC6/CapSense_Control.c ****     *  cannot change the power mode without completing the current scan as
 937:Generated_Source\PSoC6/CapSense_Control.c ****     *  a transition to Active during the scan can disrupt the Component
 938:Generated_Source\PSoC6/CapSense_Control.c ****     *  operation.
 939:Generated_Source\PSoC6/CapSense_Control.c **** 
 940:Generated_Source\PSoC6/CapSense_Control.c ****     * \param callbackParams
 941:Generated_Source\PSoC6/CapSense_Control.c ****     *  Refer to the description of the cy_stc_syspm_callback_params_t type in the
 942:Generated_Source\PSoC6/CapSense_Control.c ****     *  Peripheral Driver Library documentation.
 943:Generated_Source\PSoC6/CapSense_Control.c ****     *
 944:Generated_Source\PSoC6/CapSense_Control.c ****     * \return
ARM GAS  C:\Users\zinch\AppData\Local\Temp\cc0Msi4E.s 			page 28


 945:Generated_Source\PSoC6/CapSense_Control.c ****     *  Returns the status of the operation requested by the mode parameter:
 946:Generated_Source\PSoC6/CapSense_Control.c ****     *  - CY_SYSPM_SUCCESS  - Active power mode can be entered.
 947:Generated_Source\PSoC6/CapSense_Control.c ****     *  - CY_SYSPM_FAIL     - Active power mode cannot be entered.
 948:Generated_Source\PSoC6/CapSense_Control.c ****     *
 949:Generated_Source\PSoC6/CapSense_Control.c ****     *******************************************************************************/
 950:Generated_Source\PSoC6/CapSense_Control.c ****     cy_en_syspm_status_t CapSense_ExitLowPowerCallback(cy_stc_syspm_callback_params_t *callbackPara
 951:Generated_Source\PSoC6/CapSense_Control.c ****     {
 952:Generated_Source\PSoC6/CapSense_Control.c ****         return(CapSense_SwitchPowerModeCallback(callbackParams));
 953:Generated_Source\PSoC6/CapSense_Control.c ****     }
 954:Generated_Source\PSoC6/CapSense_Control.c **** 
 955:Generated_Source\PSoC6/CapSense_Control.c **** 
 956:Generated_Source\PSoC6/CapSense_Control.c ****     /*******************************************************************************
 957:Generated_Source\PSoC6/CapSense_Control.c ****     * Function Name: CapSense_SwitchPowerModeCallback
 958:Generated_Source\PSoC6/CapSense_Control.c ****     ****************************************************************************//**
 959:Generated_Source\PSoC6/CapSense_Control.c ****     *
 960:Generated_Source\PSoC6/CapSense_Control.c ****     * \brief
 961:Generated_Source\PSoC6/CapSense_Control.c ****     *  Handles the switching power mode for the CapSense Component.
 962:Generated_Source\PSoC6/CapSense_Control.c ****     *
 963:Generated_Source\PSoC6/CapSense_Control.c ****     * \details
 964:Generated_Source\PSoC6/CapSense_Control.c ****     *  This function handles swithing of system power mode.
 965:Generated_Source\PSoC6/CapSense_Control.c ****     *  When this function is called with the mode parameter set to CY_SYSPM_CHECK_READY,
 966:Generated_Source\PSoC6/CapSense_Control.c ****     *  the function returns CY_SYSPM_SUCCESS if no scanning is in progress, otherwise
 967:Generated_Source\PSoC6/CapSense_Control.c ****     *  CY_SYSPM_FAIL is returned that means that the device cannot switch the power mode
 968:Generated_Source\PSoC6/CapSense_Control.c ****     *  without finishing the current scan that is in progress (switching power mode
 969:Generated_Source\PSoC6/CapSense_Control.c ****     *  during the scan can disrupt a sensor scan result and produce an unexpected
 970:Generated_Source\PSoC6/CapSense_Control.c ****     *  behavior).
 971:Generated_Source\PSoC6/CapSense_Control.c ****     *
 972:Generated_Source\PSoC6/CapSense_Control.c ****     * \param callbackParams
 973:Generated_Source\PSoC6/CapSense_Control.c ****     *  Refer to the description of the cy_stc_syspm_callback_params_t type.
 974:Generated_Source\PSoC6/CapSense_Control.c ****     *
 975:Generated_Source\PSoC6/CapSense_Control.c ****     * \return
 976:Generated_Source\PSoC6/CapSense_Control.c ****     *  Returns the status of the operation requeted by mode parameter:
 977:Generated_Source\PSoC6/CapSense_Control.c ****     *  - CY_SYSPM_SUCCESS  - Switching power mode can be done
 978:Generated_Source\PSoC6/CapSense_Control.c ****     *  - CY_SYSPM_FAIL     - Switching power mode cannot be done.
 979:Generated_Source\PSoC6/CapSense_Control.c ****     *
 980:Generated_Source\PSoC6/CapSense_Control.c ****     *******************************************************************************/
 981:Generated_Source\PSoC6/CapSense_Control.c ****     static cy_en_syspm_status_t CapSense_SwitchPowerModeCallback(cy_stc_syspm_callback_params_t *ca
 982:Generated_Source\PSoC6/CapSense_Control.c ****     {
 983:Generated_Source\PSoC6/CapSense_Control.c ****         cy_en_syspm_status_t retVal = CY_SYSPM_SUCCESS;
 984:Generated_Source\PSoC6/CapSense_Control.c **** 
 985:Generated_Source\PSoC6/CapSense_Control.c ****         #if (0u != CapSense_ADC_EN)
 986:Generated_Source\PSoC6/CapSense_Control.c ****             uint8 temp;
 987:Generated_Source\PSoC6/CapSense_Control.c ****         #endif /* (0u != CapSense_ADC_EN) */
 988:Generated_Source\PSoC6/CapSense_Control.c **** 
 989:Generated_Source\PSoC6/CapSense_Control.c ****         switch(callbackParams->mode)
 990:Generated_Source\PSoC6/CapSense_Control.c ****         {
 991:Generated_Source\PSoC6/CapSense_Control.c ****         case (CY_SYSPM_CHECK_READY):
 992:Generated_Source\PSoC6/CapSense_Control.c ****             if (CapSense_NOT_BUSY != CapSense_IsBusy())
 993:Generated_Source\PSoC6/CapSense_Control.c ****             {
 994:Generated_Source\PSoC6/CapSense_Control.c ****                 /* Scanning in progress */
 995:Generated_Source\PSoC6/CapSense_Control.c ****                 retVal = CY_SYSPM_FAIL;
 996:Generated_Source\PSoC6/CapSense_Control.c ****             }
 997:Generated_Source\PSoC6/CapSense_Control.c ****             #if (0u != CapSense_ADC_EN)
 998:Generated_Source\PSoC6/CapSense_Control.c ****                 temp = CapSense_AdcIsBusy();
 999:Generated_Source\PSoC6/CapSense_Control.c ****                 if ((CapSense_AdcSTATUS_IDLE != temp) &&
1000:Generated_Source\PSoC6/CapSense_Control.c ****                     (CapSense_AdcSTATUS_OVERFLOW != temp))
1001:Generated_Source\PSoC6/CapSense_Control.c ****                 {
ARM GAS  C:\Users\zinch\AppData\Local\Temp\cc0Msi4E.s 			page 29


1002:Generated_Source\PSoC6/CapSense_Control.c ****                     /* Scanning in progress */
1003:Generated_Source\PSoC6/CapSense_Control.c ****                     retVal = CY_SYSPM_FAIL;
1004:Generated_Source\PSoC6/CapSense_Control.c ****                 }
1005:Generated_Source\PSoC6/CapSense_Control.c ****             #endif /* (0u != CapSense_ADC_EN) */
1006:Generated_Source\PSoC6/CapSense_Control.c ****             break;
1007:Generated_Source\PSoC6/CapSense_Control.c **** 
1008:Generated_Source\PSoC6/CapSense_Control.c ****         default:
1009:Generated_Source\PSoC6/CapSense_Control.c ****             break;
1010:Generated_Source\PSoC6/CapSense_Control.c ****         }
1011:Generated_Source\PSoC6/CapSense_Control.c **** 
1012:Generated_Source\PSoC6/CapSense_Control.c ****         return(retVal);
1013:Generated_Source\PSoC6/CapSense_Control.c ****     }
1014:Generated_Source\PSoC6/CapSense_Control.c **** #else
1015:Generated_Source\PSoC6/CapSense_Control.c **** 
1016:Generated_Source\PSoC6/CapSense_Control.c **** 
1017:Generated_Source\PSoC6/CapSense_Control.c ****     /*******************************************************************************
1018:Generated_Source\PSoC6/CapSense_Control.c ****     * Function Name: CapSense_DeepSleepCallback
1019:Generated_Source\PSoC6/CapSense_Control.c ****     ****************************************************************************//**
1020:Generated_Source\PSoC6/CapSense_Control.c ****     *
1021:Generated_Source\PSoC6/CapSense_Control.c ****     * \brief
1022:Generated_Source\PSoC6/CapSense_Control.c ****     *  Handles Active to Deep Sleep power mode transition for the CapSense
1023:Generated_Source\PSoC6/CapSense_Control.c ****     *  Component. This function is used when the major version of the SysPm driver
1024:Generated_Source\PSoC6/CapSense_Control.c ****     *  is 4 or greater.
1025:Generated_Source\PSoC6/CapSense_Control.c ****     *
1026:Generated_Source\PSoC6/CapSense_Control.c ****     * \details
1027:Generated_Source\PSoC6/CapSense_Control.c ****     *  This function handles Active to Deep Sleep power mode transition for the
1028:Generated_Source\PSoC6/CapSense_Control.c ****     *  CapSense Component.
1029:Generated_Source\PSoC6/CapSense_Control.c ****     *  Calling this function directly from the application layer is not recommended.
1030:Generated_Source\PSoC6/CapSense_Control.c ****     *  Instead, Cy_SysPm_CpuEnterDeepSleep() should be used for the Active to Deep Sleep
1031:Generated_Source\PSoC6/CapSense_Control.c ****     *  power mode transition of the device.
1032:Generated_Source\PSoC6/CapSense_Control.c ****     *
1033:Generated_Source\PSoC6/CapSense_Control.c ****     *  For proper operation of the CapSense Component during the Active to
1034:Generated_Source\PSoC6/CapSense_Control.c ****     *  Deep Sleep mode transition, a callback to this function should be registered
1035:Generated_Source\PSoC6/CapSense_Control.c ****     *  using the Cy_SysPm_RegisterCallback() function with CY_SYSPM_DEEPSLEEP
1036:Generated_Source\PSoC6/CapSense_Control.c ****     *  type. After the callback is registered, this function is called by the
1037:Generated_Source\PSoC6/CapSense_Control.c ****     *  Cy_SysPm_CpuEnterDeepSleep() function to prepare the Component to the device
1038:Generated_Source\PSoC6/CapSense_Control.c ****     *  power mode transition.
1039:Generated_Source\PSoC6/CapSense_Control.c ****     *
1040:Generated_Source\PSoC6/CapSense_Control.c ****     *  When this function is called with CY_SYSPM_CHECK_READY as input, this
1041:Generated_Source\PSoC6/CapSense_Control.c ****     *  function returns CY_SYSPM_SUCCESS if no scanning is in progress. Otherwise
1042:Generated_Source\PSoC6/CapSense_Control.c ****     *  CY_SYSPM_FAIL is returned. If CY_SYSPM_FAIL status is returned, a device
1043:Generated_Source\PSoC6/CapSense_Control.c ****     *  cannot change the power mode without completing the current scan as
1044:Generated_Source\PSoC6/CapSense_Control.c ****     *  a transition to Deep Sleep during the scan can disrupt the Component
1045:Generated_Source\PSoC6/CapSense_Control.c ****     *  operation.
1046:Generated_Source\PSoC6/CapSense_Control.c ****     *
1047:Generated_Source\PSoC6/CapSense_Control.c ****     * \param callbackParams
1048:Generated_Source\PSoC6/CapSense_Control.c ****     *  Refer to the description of the cy_stc_syspm_callback_params_t type in the
1049:Generated_Source\PSoC6/CapSense_Control.c ****     *  Peripheral Driver Library documentation.
1050:Generated_Source\PSoC6/CapSense_Control.c ****     *
1051:Generated_Source\PSoC6/CapSense_Control.c ****     * \param mode
1052:Generated_Source\PSoC6/CapSense_Control.c ****     *  Specifies mode cy_en_syspm_callback_mode_t.
1053:Generated_Source\PSoC6/CapSense_Control.c ****     *
1054:Generated_Source\PSoC6/CapSense_Control.c ****     * \return
1055:Generated_Source\PSoC6/CapSense_Control.c ****     *  Returns the status cy_en_syspm_status_t of the operation requested
1056:Generated_Source\PSoC6/CapSense_Control.c ****     *  by the mode parameter:
1057:Generated_Source\PSoC6/CapSense_Control.c ****     *  - CY_SYSPM_SUCCESS  - Deep Sleep power mode can be entered.
1058:Generated_Source\PSoC6/CapSense_Control.c ****     *  - CY_SYSPM_FAIL     - Deep Sleep power mode cannot be entered.
ARM GAS  C:\Users\zinch\AppData\Local\Temp\cc0Msi4E.s 			page 30


1059:Generated_Source\PSoC6/CapSense_Control.c ****     *
1060:Generated_Source\PSoC6/CapSense_Control.c ****     *******************************************************************************/
1061:Generated_Source\PSoC6/CapSense_Control.c ****     cy_en_syspm_status_t CapSense_DeepSleepCallback(
1062:Generated_Source\PSoC6/CapSense_Control.c ****                          cy_stc_syspm_callback_params_t * callbackParams,
1063:Generated_Source\PSoC6/CapSense_Control.c ****                          cy_en_syspm_callback_mode_t mode)
1064:Generated_Source\PSoC6/CapSense_Control.c ****     {
 578              		.loc 1 1064 0
 579              		.cfi_startproc
 580              		@ args = 0, pretend = 0, frame = 0
 581              		@ frame_needed = 0, uses_anonymous_args = 0
 582              	.LVL70:
 583 0000 10B5     		push	{r4, lr}
 584              		.cfi_def_cfa_offset 8
 585              		.cfi_offset 4, -8
 586              		.cfi_offset 14, -4
 587              	.LVL71:
1065:Generated_Source\PSoC6/CapSense_Control.c ****         cy_en_syspm_status_t retVal = CY_SYSPM_SUCCESS;
1066:Generated_Source\PSoC6/CapSense_Control.c **** 
1067:Generated_Source\PSoC6/CapSense_Control.c ****         #if (0u != CapSense_ADC_EN)
1068:Generated_Source\PSoC6/CapSense_Control.c ****             uint8 temp;
1069:Generated_Source\PSoC6/CapSense_Control.c ****         #endif /* (0u != CapSense_ADC_EN) */
1070:Generated_Source\PSoC6/CapSense_Control.c **** 
1071:Generated_Source\PSoC6/CapSense_Control.c ****         (void)callbackParams;
1072:Generated_Source\PSoC6/CapSense_Control.c ****         switch(mode)
 588              		.loc 1 1072 0
 589 0002 0129     		cmp	r1, #1
 590 0004 04D1     		bne	.L50
1073:Generated_Source\PSoC6/CapSense_Control.c ****         {
1074:Generated_Source\PSoC6/CapSense_Control.c ****         case (CY_SYSPM_CHECK_READY):
1075:Generated_Source\PSoC6/CapSense_Control.c ****             if (CapSense_NOT_BUSY != CapSense_IsBusy())
 591              		.loc 1 1075 0
 592 0006 FFF7FEFF 		bl	CapSense_IsBusy
 593              	.LVL72:
 594 000a 0028     		cmp	r0, #0
 595 000c 02D1     		bne	.L49
 596 000e 02E0     		b	.L46
 597              	.LVL73:
 598              	.L50:
1065:Generated_Source\PSoC6/CapSense_Control.c ****         cy_en_syspm_status_t retVal = CY_SYSPM_SUCCESS;
 599              		.loc 1 1065 0
 600 0010 0020     		movs	r0, #0
 601              	.LVL74:
 602 0012 00E0     		b	.L46
 603              	.LVL75:
 604              	.L49:
1076:Generated_Source\PSoC6/CapSense_Control.c ****             {
1077:Generated_Source\PSoC6/CapSense_Control.c ****                 /* Scanning in progress */
1078:Generated_Source\PSoC6/CapSense_Control.c ****                 retVal = CY_SYSPM_FAIL;
 605              		.loc 1 1078 0
 606 0014 0048     		ldr	r0, .L51
 607              	.L46:
 608              	.LVL76:
1079:Generated_Source\PSoC6/CapSense_Control.c ****             }
1080:Generated_Source\PSoC6/CapSense_Control.c ****             #if (0u != CapSense_ADC_EN)
1081:Generated_Source\PSoC6/CapSense_Control.c ****                 temp = CapSense_AdcIsBusy();
1082:Generated_Source\PSoC6/CapSense_Control.c ****                 if ((CapSense_AdcSTATUS_IDLE != temp) &&
1083:Generated_Source\PSoC6/CapSense_Control.c ****                     (CapSense_AdcSTATUS_OVERFLOW != temp))
ARM GAS  C:\Users\zinch\AppData\Local\Temp\cc0Msi4E.s 			page 31


1084:Generated_Source\PSoC6/CapSense_Control.c ****                 {
1085:Generated_Source\PSoC6/CapSense_Control.c ****                     /* Scanning in progress */
1086:Generated_Source\PSoC6/CapSense_Control.c ****                     retVal = CY_SYSPM_FAIL;
1087:Generated_Source\PSoC6/CapSense_Control.c ****                 }
1088:Generated_Source\PSoC6/CapSense_Control.c ****             #endif /* (0u != CapSense_ADC_EN) */
1089:Generated_Source\PSoC6/CapSense_Control.c ****             break;
1090:Generated_Source\PSoC6/CapSense_Control.c **** 
1091:Generated_Source\PSoC6/CapSense_Control.c ****         default:
1092:Generated_Source\PSoC6/CapSense_Control.c ****             break;
1093:Generated_Source\PSoC6/CapSense_Control.c ****         }
1094:Generated_Source\PSoC6/CapSense_Control.c **** 
1095:Generated_Source\PSoC6/CapSense_Control.c ****         return(retVal);
1096:Generated_Source\PSoC6/CapSense_Control.c ****     }
 609              		.loc 1 1096 0
 610              		@ sp needed
 611 0016 10BD     		pop	{r4, pc}
 612              	.L52:
 613              		.align	2
 614              	.L51:
 615 0018 FF004200 		.word	4325631
 616              		.cfi_endproc
 617              	.LFE189:
 618              		.size	CapSense_DeepSleepCallback, .-CapSense_DeepSleepCallback
 619              		.bss
 620              		.set	.LANCHOR0,. + 0
 621              		.type	CapSense_InitVar, %object
 622              		.size	CapSense_InitVar, 1
 623              	CapSense_InitVar:
 624 0000 00       		.space	1
 625              		.text
 626              	.Letext0:
 627              		.file 2 "c:\\program files (x86)\\cypress\\psoc creator\\4.4\\psoc creator\\import\\gnu\\arm\\5.4.
 628              		.file 3 "c:\\program files (x86)\\cypress\\psoc creator\\4.4\\psoc creator\\import\\gnu\\arm\\5.4.
 629              		.file 4 "Generated_Source\\PSoC6\\pdl\\drivers/peripheral/device/cy_device.h"
 630              		.file 5 "Generated_Source\\PSoC6\\pdl\\drivers/peripheral/syslib/cy_syslib.h"
 631              		.file 6 "Generated_Source\\PSoC6\\pdl\\drivers/peripheral/syspm/cy_syspm.h"
 632              		.file 7 "Generated_Source\\PSoC6\\CapSense_Configuration.h"
 633              		.file 8 "Generated_Source\\PSoC6\\CapSense_Structure.h"
 634              		.file 9 "Generated_Source\\PSoC6\\CapSense_Tuner.h"
 635              		.file 10 "Generated_Source\\PSoC6\\CapSense_Processing.h"
 636              		.file 11 "Generated_Source\\PSoC6\\CapSense_Sensing.h"
 637              		.file 12 "Generated_Source\\PSoC6\\CapSense_Filter.h"