ARM GAS  C:\Users\zinch\AppData\Local\Temp\ccRcQgKK.s 			page 1


   1              		.syntax unified
   2              		.cpu cortex-m4
   3              		.eabi_attribute 27, 1
   4              		.fpu fpv4-sp-d16
   5              		.eabi_attribute 20, 1
   6              		.eabi_attribute 21, 1
   7              		.eabi_attribute 23, 3
   8              		.eabi_attribute 24, 1
   9              		.eabi_attribute 25, 1
  10              		.eabi_attribute 26, 1
  11              		.eabi_attribute 30, 1
  12              		.eabi_attribute 34, 1
  13              		.eabi_attribute 18, 4
  14              		.thumb
  15              		.syntax unified
  16              		.file	"main_cm4.c"
  17              		.text
  18              	.Ltext0:
  19              		.cfi_sections	.debug_frame
  20              		.section	.text.write_voice,"ax",%progbits
  21              		.align	2
  22              		.global	write_voice
  23              		.thumb
  24              		.thumb_func
  25              		.type	write_voice, %function
  26              	write_voice:
  27              	.LFB577:
  28              		.file 1 "main_cm4.c"
   1:main_cm4.c    **** /* ========================================
   2:main_cm4.c    ****  *
   3:main_cm4.c    ****  * Copyright YOUR COMPANY, THE YEAR
   4:main_cm4.c    ****  * All Rights Reserved
   5:main_cm4.c    ****  * UNPUBLISHED, LICENSED SOFTWARE.
   6:main_cm4.c    ****  *
   7:main_cm4.c    ****  * CONFIDENTIAL AND PROPRIETARY INFORMATION
   8:main_cm4.c    ****  * WHICH IS THE PROPERTY OF your company.
   9:main_cm4.c    ****  *
  10:main_cm4.c    ****  * ========================================
  11:main_cm4.c    **** */
  12:main_cm4.c    **** #include "project.h"
  13:main_cm4.c    **** #include <stdio.h>
  14:main_cm4.c    **** 
  15:main_cm4.c    **** #define UART_HW ((CySCB_Type *) UART_SCB__HW)
  16:main_cm4.c    **** 
  17:main_cm4.c    **** #define FREQ 12000
  18:main_cm4.c    **** #define TIME 10
  19:main_cm4.c    **** #define SAMPLES FREQ*TIME
  20:main_cm4.c    **** 
  21:main_cm4.c    **** int write_voice();
  22:main_cm4.c    **** int play_voice();
  23:main_cm4.c    **** 
  24:main_cm4.c    **** int8_t voice[SAMPLES];
  25:main_cm4.c    **** //int8_t codes[SAMPLES];
  26:main_cm4.c    **** 
  27:main_cm4.c    **** int main(void)
  28:main_cm4.c    **** {
  29:main_cm4.c    ****     __enable_irq(); /* Enable global interrupts. */
ARM GAS  C:\Users\zinch\AppData\Local\Temp\ccRcQgKK.s 			page 2


  30:main_cm4.c    ****     
  31:main_cm4.c    ****     UART_Start();
  32:main_cm4.c    ****     CapSense_Start();
  33:main_cm4.c    ****     setvbuf(stdin, NULL, _IONBF, 0);
  34:main_cm4.c    ****     
  35:main_cm4.c    ****     printf("\x1b[2J\x1b[H");
  36:main_cm4.c    ****     printf("------------------- CapSense VoiceRepeater log -------------------\r\n\n");
  37:main_cm4.c    **** 
  38:main_cm4.c    ****     for(;;)
  39:main_cm4.c    ****     {
  40:main_cm4.c    ****         CapSense_ScanAllWidgets();
  41:main_cm4.c    ****         if (!CapSense_IsBusy()) {
  42:main_cm4.c    ****             CapSense_ProcessAllWidgets();
  43:main_cm4.c    ****             if (CapSense_IsWidgetActive(CapSense_BUTTON0_WDGT_ID)) {
  44:main_cm4.c    ****                 write_voice();
  45:main_cm4.c    ****             }
  46:main_cm4.c    ****             if (CapSense_IsWidgetActive(CapSense_BUTTON1_WDGT_ID)) {
  47:main_cm4.c    ****                 play_voice();
  48:main_cm4.c    ****             }
  49:main_cm4.c    ****         }
  50:main_cm4.c    ****     }
  51:main_cm4.c    **** }
  52:main_cm4.c    **** 
  53:main_cm4.c    **** int write_voice()
  54:main_cm4.c    **** {
  29              		.loc 1 54 0
  30              		.cfi_startproc
  31              		@ args = 0, pretend = 0, frame = 0
  32              		@ frame_needed = 0, uses_anonymous_args = 0
  33 0000 38B5     		push	{r3, r4, r5, lr}
  34              		.cfi_def_cfa_offset 16
  35              		.cfi_offset 3, -16
  36              		.cfi_offset 4, -12
  37              		.cfi_offset 5, -8
  38              		.cfi_offset 14, -4
  39              	.LVL0:
  40              	.LBB51:
  41              	.LBB52:
  42              		.file 2 "Generated_Source\\PSoC6\\pdl\\drivers/peripheral/gpio/cy_gpio.h"
   1:Generated_Source\PSoC6\pdl\drivers/peripheral/gpio/cy_gpio.h **** /***************************************************************************//**
   2:Generated_Source\PSoC6\pdl\drivers/peripheral/gpio/cy_gpio.h **** * \file cy_gpio.h
   3:Generated_Source\PSoC6\pdl\drivers/peripheral/gpio/cy_gpio.h **** * \version 1.20
   4:Generated_Source\PSoC6\pdl\drivers/peripheral/gpio/cy_gpio.h **** *
   5:Generated_Source\PSoC6\pdl\drivers/peripheral/gpio/cy_gpio.h **** * Provides an API declaration of the GPIO driver
   6:Generated_Source\PSoC6\pdl\drivers/peripheral/gpio/cy_gpio.h **** *
   7:Generated_Source\PSoC6\pdl\drivers/peripheral/gpio/cy_gpio.h **** ********************************************************************************
   8:Generated_Source\PSoC6\pdl\drivers/peripheral/gpio/cy_gpio.h **** * \copyright
   9:Generated_Source\PSoC6\pdl\drivers/peripheral/gpio/cy_gpio.h **** * Copyright 2016-2018, Cypress Semiconductor Corporation. All rights reserved.
  10:Generated_Source\PSoC6\pdl\drivers/peripheral/gpio/cy_gpio.h **** * You may use this file only in accordance with the license, terms, conditions,
  11:Generated_Source\PSoC6\pdl\drivers/peripheral/gpio/cy_gpio.h **** * disclaimers, and limitations in the end user license agreement accompanying
  12:Generated_Source\PSoC6\pdl\drivers/peripheral/gpio/cy_gpio.h **** * the software package with which this file was provided.
  13:Generated_Source\PSoC6\pdl\drivers/peripheral/gpio/cy_gpio.h **** *******************************************************************************/
  14:Generated_Source\PSoC6\pdl\drivers/peripheral/gpio/cy_gpio.h **** 
  15:Generated_Source\PSoC6\pdl\drivers/peripheral/gpio/cy_gpio.h **** /**
  16:Generated_Source\PSoC6\pdl\drivers/peripheral/gpio/cy_gpio.h **** * \addtogroup group_gpio
  17:Generated_Source\PSoC6\pdl\drivers/peripheral/gpio/cy_gpio.h **** * \{
  18:Generated_Source\PSoC6\pdl\drivers/peripheral/gpio/cy_gpio.h **** * The GPIO driver provides an API to configure and access device Input/Output pins.
ARM GAS  C:\Users\zinch\AppData\Local\Temp\ccRcQgKK.s 			page 3


  19:Generated_Source\PSoC6\pdl\drivers/peripheral/gpio/cy_gpio.h **** *
  20:Generated_Source\PSoC6\pdl\drivers/peripheral/gpio/cy_gpio.h **** * The functions and other declarations used in this driver are in cy_gpio.h. 
  21:Generated_Source\PSoC6\pdl\drivers/peripheral/gpio/cy_gpio.h **** * You can include cy_pdl.h (ModusToolbox only) to get access to all functions 
  22:Generated_Source\PSoC6\pdl\drivers/peripheral/gpio/cy_gpio.h **** * and declarations in the PDL.
  23:Generated_Source\PSoC6\pdl\drivers/peripheral/gpio/cy_gpio.h **** *
  24:Generated_Source\PSoC6\pdl\drivers/peripheral/gpio/cy_gpio.h **** * IO pins include all general purpose types such as GPIO, SIO, HSIO, AUXIO, and
  25:Generated_Source\PSoC6\pdl\drivers/peripheral/gpio/cy_gpio.h **** * their variants.
  26:Generated_Source\PSoC6\pdl\drivers/peripheral/gpio/cy_gpio.h **** *
  27:Generated_Source\PSoC6\pdl\drivers/peripheral/gpio/cy_gpio.h **** * Initialization can be performed either at the port level or by configuring the
  28:Generated_Source\PSoC6\pdl\drivers/peripheral/gpio/cy_gpio.h **** * individual pins. For efficient use of code space, port
  29:Generated_Source\PSoC6\pdl\drivers/peripheral/gpio/cy_gpio.h **** * configuration should be used in the field. Refer to the product device header files 
  30:Generated_Source\PSoC6\pdl\drivers/peripheral/gpio/cy_gpio.h **** * for the list of supported ports and pins.
  31:Generated_Source\PSoC6\pdl\drivers/peripheral/gpio/cy_gpio.h **** * 
  32:Generated_Source\PSoC6\pdl\drivers/peripheral/gpio/cy_gpio.h **** * - Single pin configuration is performed by using \ref Cy_GPIO_Pin_FastInit 
  33:Generated_Source\PSoC6\pdl\drivers/peripheral/gpio/cy_gpio.h **** *   (provide specific values) or \ref Cy_GPIO_Pin_Init (provide a filled
  34:Generated_Source\PSoC6\pdl\drivers/peripheral/gpio/cy_gpio.h **** *   cy_stc_gpio_pin_config_t structure).
  35:Generated_Source\PSoC6\pdl\drivers/peripheral/gpio/cy_gpio.h **** * - An entire port can be configured using \ref Cy_GPIO_Port_Init. Provide a filled 
  36:Generated_Source\PSoC6\pdl\drivers/peripheral/gpio/cy_gpio.h **** *   cy_stc_gpio_prt_config_t structure. The values in the structure are 
  37:Generated_Source\PSoC6\pdl\drivers/peripheral/gpio/cy_gpio.h **** *   bitfields representing the desired value for each pin in the port.
  38:Generated_Source\PSoC6\pdl\drivers/peripheral/gpio/cy_gpio.h **** * - Pin configuration and management is based on the port address and pin number.
  39:Generated_Source\PSoC6\pdl\drivers/peripheral/gpio/cy_gpio.h **** *   \ref Cy_GPIO_PortToAddr function can optionally be used to calculate the port
  40:Generated_Source\PSoC6\pdl\drivers/peripheral/gpio/cy_gpio.h **** *   address from the port number at run-time.
  41:Generated_Source\PSoC6\pdl\drivers/peripheral/gpio/cy_gpio.h **** *
  42:Generated_Source\PSoC6\pdl\drivers/peripheral/gpio/cy_gpio.h **** * Once the pin/port initialization is complete, each pin can be accessed by 
  43:Generated_Source\PSoC6\pdl\drivers/peripheral/gpio/cy_gpio.h **** * specifying the port (GPIO_PRT_Type) and the pin (0-7) in the provided API 
  44:Generated_Source\PSoC6\pdl\drivers/peripheral/gpio/cy_gpio.h **** * functions.
  45:Generated_Source\PSoC6\pdl\drivers/peripheral/gpio/cy_gpio.h **** *
  46:Generated_Source\PSoC6\pdl\drivers/peripheral/gpio/cy_gpio.h **** * \section group_gpio_configuration Configuration Considerations
  47:Generated_Source\PSoC6\pdl\drivers/peripheral/gpio/cy_gpio.h **** *
  48:Generated_Source\PSoC6\pdl\drivers/peripheral/gpio/cy_gpio.h **** * 1. Pin multiplexing is controlled through the High-Speed IO Matrix (HSIOM) selection.
  49:Generated_Source\PSoC6\pdl\drivers/peripheral/gpio/cy_gpio.h **** *    This allows the pin to connect to signal sources/sinks throughout the device,
  50:Generated_Source\PSoC6\pdl\drivers/peripheral/gpio/cy_gpio.h **** *    as defined by the pin HSIOM selection options (en_hsiom_sel_t).
  51:Generated_Source\PSoC6\pdl\drivers/peripheral/gpio/cy_gpio.h **** * 2. All pins are initialized to High-Z drive mode with HSIOM connected to CPU (SW
  52:Generated_Source\PSoC6\pdl\drivers/peripheral/gpio/cy_gpio.h **** *    control digital pin only) at Power-On-Reset(POR).
  53:Generated_Source\PSoC6\pdl\drivers/peripheral/gpio/cy_gpio.h **** * 3. Some API functions perform read-modify-write operations on shared port
  54:Generated_Source\PSoC6\pdl\drivers/peripheral/gpio/cy_gpio.h **** *    registers. These functions are not thread safe and care must be taken when
  55:Generated_Source\PSoC6\pdl\drivers/peripheral/gpio/cy_gpio.h **** *    called by the application.
  56:Generated_Source\PSoC6\pdl\drivers/peripheral/gpio/cy_gpio.h **** * 4. Digital input buffer provides a high-impedance buffer for the external 
  57:Generated_Source\PSoC6\pdl\drivers/peripheral/gpio/cy_gpio.h **** *    digital input. The input buffer is connected to the HSIOM for routing to 
  58:Generated_Source\PSoC6\pdl\drivers/peripheral/gpio/cy_gpio.h **** *    the CPU port registers and selected peripheral. Enabling the input 
  59:Generated_Source\PSoC6\pdl\drivers/peripheral/gpio/cy_gpio.h **** *    buffer provides possibility to read the pin state via the CPU.
  60:Generated_Source\PSoC6\pdl\drivers/peripheral/gpio/cy_gpio.h **** *    If pin is connected to an analog signal, the input buffer should be 
  61:Generated_Source\PSoC6\pdl\drivers/peripheral/gpio/cy_gpio.h **** *    disabled to avoid crowbar currents. For more information refer to device 
  62:Generated_Source\PSoC6\pdl\drivers/peripheral/gpio/cy_gpio.h **** *    TRM and the device datasheet.
  63:Generated_Source\PSoC6\pdl\drivers/peripheral/gpio/cy_gpio.h **** *
  64:Generated_Source\PSoC6\pdl\drivers/peripheral/gpio/cy_gpio.h **** * Multiple pins on a port can be updated using direct port register writes with an
  65:Generated_Source\PSoC6\pdl\drivers/peripheral/gpio/cy_gpio.h **** * appropriate port mask. An example is shown below, highlighting the different ways of 
  66:Generated_Source\PSoC6\pdl\drivers/peripheral/gpio/cy_gpio.h **** * configuring Port 1 pins using:
  67:Generated_Source\PSoC6\pdl\drivers/peripheral/gpio/cy_gpio.h **** * 
  68:Generated_Source\PSoC6\pdl\drivers/peripheral/gpio/cy_gpio.h **** * - Port output data register
  69:Generated_Source\PSoC6\pdl\drivers/peripheral/gpio/cy_gpio.h **** * - Port output data set register
  70:Generated_Source\PSoC6\pdl\drivers/peripheral/gpio/cy_gpio.h **** * - Port output data clear register
  71:Generated_Source\PSoC6\pdl\drivers/peripheral/gpio/cy_gpio.h **** *
  72:Generated_Source\PSoC6\pdl\drivers/peripheral/gpio/cy_gpio.h **** * \snippet gpio/gpio_v1_10_sut_01.cydsn/main_cm4.c Cy_GPIO_Snippet
  73:Generated_Source\PSoC6\pdl\drivers/peripheral/gpio/cy_gpio.h **** *
  74:Generated_Source\PSoC6\pdl\drivers/peripheral/gpio/cy_gpio.h **** * \section group_gpio_more_information More Information
  75:Generated_Source\PSoC6\pdl\drivers/peripheral/gpio/cy_gpio.h **** *
ARM GAS  C:\Users\zinch\AppData\Local\Temp\ccRcQgKK.s 			page 4


  76:Generated_Source\PSoC6\pdl\drivers/peripheral/gpio/cy_gpio.h **** * Refer to the technical reference manual (TRM) and the device datasheet.
  77:Generated_Source\PSoC6\pdl\drivers/peripheral/gpio/cy_gpio.h **** *
  78:Generated_Source\PSoC6\pdl\drivers/peripheral/gpio/cy_gpio.h **** * \section group_gpio_MISRA MISRA-C Compliance
  79:Generated_Source\PSoC6\pdl\drivers/peripheral/gpio/cy_gpio.h **** * The GPIO driver has the following specific deviations:
  80:Generated_Source\PSoC6\pdl\drivers/peripheral/gpio/cy_gpio.h **** *
  81:Generated_Source\PSoC6\pdl\drivers/peripheral/gpio/cy_gpio.h **** * <table class="doxtable">
  82:Generated_Source\PSoC6\pdl\drivers/peripheral/gpio/cy_gpio.h **** *   <tr>
  83:Generated_Source\PSoC6\pdl\drivers/peripheral/gpio/cy_gpio.h **** *     <th>MISRA Rule</th>
  84:Generated_Source\PSoC6\pdl\drivers/peripheral/gpio/cy_gpio.h **** *     <th>Rule Class (Required/Advisory)</th>
  85:Generated_Source\PSoC6\pdl\drivers/peripheral/gpio/cy_gpio.h **** *     <th>Rule Description</th>
  86:Generated_Source\PSoC6\pdl\drivers/peripheral/gpio/cy_gpio.h **** *     <th>Description of Deviation(s)</th>
  87:Generated_Source\PSoC6\pdl\drivers/peripheral/gpio/cy_gpio.h **** *   </tr>
  88:Generated_Source\PSoC6\pdl\drivers/peripheral/gpio/cy_gpio.h **** *   <tr>
  89:Generated_Source\PSoC6\pdl\drivers/peripheral/gpio/cy_gpio.h **** *     <td>11.4</td>
  90:Generated_Source\PSoC6\pdl\drivers/peripheral/gpio/cy_gpio.h **** *     <td>A</td>
  91:Generated_Source\PSoC6\pdl\drivers/peripheral/gpio/cy_gpio.h **** *     <td>A cast should not be performed between a pointer to object type and
  92:Generated_Source\PSoC6\pdl\drivers/peripheral/gpio/cy_gpio.h **** *         a different pointer to object type.</td>
  93:Generated_Source\PSoC6\pdl\drivers/peripheral/gpio/cy_gpio.h **** *     <td> This code is safe because the elements of both GPIO_PRT_V1_Type and GPIO_PRT_V2_Type 
  94:Generated_Source\PSoC6\pdl\drivers/peripheral/gpio/cy_gpio.h **** *          types have identical alignment.</td>
  95:Generated_Source\PSoC6\pdl\drivers/peripheral/gpio/cy_gpio.h **** *   </tr>
  96:Generated_Source\PSoC6\pdl\drivers/peripheral/gpio/cy_gpio.h **** *   <tr>
  97:Generated_Source\PSoC6\pdl\drivers/peripheral/gpio/cy_gpio.h **** *     <td>16.7</td>
  98:Generated_Source\PSoC6\pdl\drivers/peripheral/gpio/cy_gpio.h **** *     <td>A</td>
  99:Generated_Source\PSoC6\pdl\drivers/peripheral/gpio/cy_gpio.h **** *     <td>A pointer parameter in a function prototype should be declared as pointer 
 100:Generated_Source\PSoC6\pdl\drivers/peripheral/gpio/cy_gpio.h **** *         to const if the pointer is not used to modify the addressed object.</td>
 101:Generated_Source\PSoC6\pdl\drivers/peripheral/gpio/cy_gpio.h **** *     <td>The objects pointed to by the base addresses of the GPIO port are not always modified.
 102:Generated_Source\PSoC6\pdl\drivers/peripheral/gpio/cy_gpio.h **** *         While a const qualifier can be used in select scenarios, it brings little benefit
 103:Generated_Source\PSoC6\pdl\drivers/peripheral/gpio/cy_gpio.h **** *         in adding this to the affected functions. </td>
 104:Generated_Source\PSoC6\pdl\drivers/peripheral/gpio/cy_gpio.h **** *   </tr>
 105:Generated_Source\PSoC6\pdl\drivers/peripheral/gpio/cy_gpio.h **** * </table>
 106:Generated_Source\PSoC6\pdl\drivers/peripheral/gpio/cy_gpio.h **** *
 107:Generated_Source\PSoC6\pdl\drivers/peripheral/gpio/cy_gpio.h **** * \section group_gpio_changelog Changelog
 108:Generated_Source\PSoC6\pdl\drivers/peripheral/gpio/cy_gpio.h **** * <table class="doxtable">
 109:Generated_Source\PSoC6\pdl\drivers/peripheral/gpio/cy_gpio.h **** *   <tr><th>Version</th><th>Changes</th><th>Reason for Change</th></tr>
 110:Generated_Source\PSoC6\pdl\drivers/peripheral/gpio/cy_gpio.h **** *   <tr>
 111:Generated_Source\PSoC6\pdl\drivers/peripheral/gpio/cy_gpio.h **** *     <td rowspan="3">1.20</td>
 112:Generated_Source\PSoC6\pdl\drivers/peripheral/gpio/cy_gpio.h **** *     <td>Flattened the organization of the driver source code into the single source directory and
 113:Generated_Source\PSoC6\pdl\drivers/peripheral/gpio/cy_gpio.h **** *     <td>Driver library directory-structure simplification.</td>
 114:Generated_Source\PSoC6\pdl\drivers/peripheral/gpio/cy_gpio.h **** *   </tr>
 115:Generated_Source\PSoC6\pdl\drivers/peripheral/gpio/cy_gpio.h **** *   <tr>
 116:Generated_Source\PSoC6\pdl\drivers/peripheral/gpio/cy_gpio.h **** *     <td>Added the functions for configuring the AMux bus splitter switch cells:
 117:Generated_Source\PSoC6\pdl\drivers/peripheral/gpio/cy_gpio.h **** *     - \ref Cy_GPIO_SetAmuxSplit
 118:Generated_Source\PSoC6\pdl\drivers/peripheral/gpio/cy_gpio.h **** *     - \ref Cy_GPIO_GetAmuxSplit
 119:Generated_Source\PSoC6\pdl\drivers/peripheral/gpio/cy_gpio.h **** *     </td>
 120:Generated_Source\PSoC6\pdl\drivers/peripheral/gpio/cy_gpio.h **** *     <td>Added a new functionality related to AMux bus.</td>
 121:Generated_Source\PSoC6\pdl\drivers/peripheral/gpio/cy_gpio.h **** *   </tr>
 122:Generated_Source\PSoC6\pdl\drivers/peripheral/gpio/cy_gpio.h **** *   <tr>
 123:Generated_Source\PSoC6\pdl\drivers/peripheral/gpio/cy_gpio.h **** *     <td>Added register access layer. Use register access macros instead
 124:Generated_Source\PSoC6\pdl\drivers/peripheral/gpio/cy_gpio.h **** *         of direct register access using dereferenced pointers.</td>
 125:Generated_Source\PSoC6\pdl\drivers/peripheral/gpio/cy_gpio.h **** *     <td>Makes register access device-independent, so that the PDL does 
 126:Generated_Source\PSoC6\pdl\drivers/peripheral/gpio/cy_gpio.h **** *         not need to be recompiled for each supported part number.</td>
 127:Generated_Source\PSoC6\pdl\drivers/peripheral/gpio/cy_gpio.h **** *   </tr>
 128:Generated_Source\PSoC6\pdl\drivers/peripheral/gpio/cy_gpio.h **** *   <tr>
 129:Generated_Source\PSoC6\pdl\drivers/peripheral/gpio/cy_gpio.h **** *     <td>1.10.1</td>
 130:Generated_Source\PSoC6\pdl\drivers/peripheral/gpio/cy_gpio.h **** *     <td>Updated description for the functions: \ref Cy_GPIO_GetInterruptStatus, 
 131:Generated_Source\PSoC6\pdl\drivers/peripheral/gpio/cy_gpio.h **** *         \ref Cy_GPIO_GetInterruptMask, \ref Cy_GPIO_GetInterruptStatusMasked.
 132:Generated_Source\PSoC6\pdl\drivers/peripheral/gpio/cy_gpio.h **** *
ARM GAS  C:\Users\zinch\AppData\Local\Temp\ccRcQgKK.s 			page 5


 133:Generated_Source\PSoC6\pdl\drivers/peripheral/gpio/cy_gpio.h **** *         Minor documentation edits.
 134:Generated_Source\PSoC6\pdl\drivers/peripheral/gpio/cy_gpio.h **** *     </td>
 135:Generated_Source\PSoC6\pdl\drivers/peripheral/gpio/cy_gpio.h **** *     <td>Documentation update and clarification</td>
 136:Generated_Source\PSoC6\pdl\drivers/peripheral/gpio/cy_gpio.h **** *   </tr>
 137:Generated_Source\PSoC6\pdl\drivers/peripheral/gpio/cy_gpio.h **** *   <tr>
 138:Generated_Source\PSoC6\pdl\drivers/peripheral/gpio/cy_gpio.h **** *     <td>1.10</td>
 139:Generated_Source\PSoC6\pdl\drivers/peripheral/gpio/cy_gpio.h **** *     <td>Added input parameter validation to the API functions</td>
 140:Generated_Source\PSoC6\pdl\drivers/peripheral/gpio/cy_gpio.h **** *     <td></td>
 141:Generated_Source\PSoC6\pdl\drivers/peripheral/gpio/cy_gpio.h **** *   </tr>
 142:Generated_Source\PSoC6\pdl\drivers/peripheral/gpio/cy_gpio.h **** *   <tr>
 143:Generated_Source\PSoC6\pdl\drivers/peripheral/gpio/cy_gpio.h **** *     <td>1.0</td>
 144:Generated_Source\PSoC6\pdl\drivers/peripheral/gpio/cy_gpio.h **** *     <td>Initial version</td>
 145:Generated_Source\PSoC6\pdl\drivers/peripheral/gpio/cy_gpio.h **** *     <td></td>
 146:Generated_Source\PSoC6\pdl\drivers/peripheral/gpio/cy_gpio.h **** *   </tr>
 147:Generated_Source\PSoC6\pdl\drivers/peripheral/gpio/cy_gpio.h **** * </table>
 148:Generated_Source\PSoC6\pdl\drivers/peripheral/gpio/cy_gpio.h **** *
 149:Generated_Source\PSoC6\pdl\drivers/peripheral/gpio/cy_gpio.h **** * \defgroup group_gpio_macros Macros
 150:Generated_Source\PSoC6\pdl\drivers/peripheral/gpio/cy_gpio.h **** * \defgroup group_gpio_functions Functions
 151:Generated_Source\PSoC6\pdl\drivers/peripheral/gpio/cy_gpio.h **** * \{
 152:Generated_Source\PSoC6\pdl\drivers/peripheral/gpio/cy_gpio.h **** *   \defgroup group_gpio_functions_init       Initialization Functions
 153:Generated_Source\PSoC6\pdl\drivers/peripheral/gpio/cy_gpio.h **** *   \defgroup group_gpio_functions_gpio       GPIO Functions
 154:Generated_Source\PSoC6\pdl\drivers/peripheral/gpio/cy_gpio.h **** *   \defgroup group_gpio_functions_sio        SIO Functions
 155:Generated_Source\PSoC6\pdl\drivers/peripheral/gpio/cy_gpio.h **** *   \defgroup group_gpio_functions_interrupt  Port Interrupt Functions
 156:Generated_Source\PSoC6\pdl\drivers/peripheral/gpio/cy_gpio.h **** * \}
 157:Generated_Source\PSoC6\pdl\drivers/peripheral/gpio/cy_gpio.h **** * \defgroup group_gpio_data_structures Data Structures
 158:Generated_Source\PSoC6\pdl\drivers/peripheral/gpio/cy_gpio.h **** * \defgroup group_gpio_enums Enumerated Types
 159:Generated_Source\PSoC6\pdl\drivers/peripheral/gpio/cy_gpio.h **** */
 160:Generated_Source\PSoC6\pdl\drivers/peripheral/gpio/cy_gpio.h **** 
 161:Generated_Source\PSoC6\pdl\drivers/peripheral/gpio/cy_gpio.h **** #if !defined(CY_GPIO_H)
 162:Generated_Source\PSoC6\pdl\drivers/peripheral/gpio/cy_gpio.h **** #define CY_GPIO_H
 163:Generated_Source\PSoC6\pdl\drivers/peripheral/gpio/cy_gpio.h **** 
 164:Generated_Source\PSoC6\pdl\drivers/peripheral/gpio/cy_gpio.h **** #include <stddef.h>
 165:Generated_Source\PSoC6\pdl\drivers/peripheral/gpio/cy_gpio.h **** #include "cy_device.h"
 166:Generated_Source\PSoC6\pdl\drivers/peripheral/gpio/cy_gpio.h **** #include "cy_device_headers.h"
 167:Generated_Source\PSoC6\pdl\drivers/peripheral/gpio/cy_gpio.h **** #include "cy_syslib.h"
 168:Generated_Source\PSoC6\pdl\drivers/peripheral/gpio/cy_gpio.h **** 
 169:Generated_Source\PSoC6\pdl\drivers/peripheral/gpio/cy_gpio.h **** #if defined(__cplusplus)
 170:Generated_Source\PSoC6\pdl\drivers/peripheral/gpio/cy_gpio.h **** extern "C" {
 171:Generated_Source\PSoC6\pdl\drivers/peripheral/gpio/cy_gpio.h **** #endif
 172:Generated_Source\PSoC6\pdl\drivers/peripheral/gpio/cy_gpio.h **** 
 173:Generated_Source\PSoC6\pdl\drivers/peripheral/gpio/cy_gpio.h **** /** \addtogroup group_gpio_macros
 174:Generated_Source\PSoC6\pdl\drivers/peripheral/gpio/cy_gpio.h **** * \{
 175:Generated_Source\PSoC6\pdl\drivers/peripheral/gpio/cy_gpio.h **** */
 176:Generated_Source\PSoC6\pdl\drivers/peripheral/gpio/cy_gpio.h **** 
 177:Generated_Source\PSoC6\pdl\drivers/peripheral/gpio/cy_gpio.h **** /** Driver major version */
 178:Generated_Source\PSoC6\pdl\drivers/peripheral/gpio/cy_gpio.h **** #define CY_GPIO_DRV_VERSION_MAJOR       1
 179:Generated_Source\PSoC6\pdl\drivers/peripheral/gpio/cy_gpio.h **** 
 180:Generated_Source\PSoC6\pdl\drivers/peripheral/gpio/cy_gpio.h **** /** Driver minor version */
 181:Generated_Source\PSoC6\pdl\drivers/peripheral/gpio/cy_gpio.h **** #define CY_GPIO_DRV_VERSION_MINOR       20
 182:Generated_Source\PSoC6\pdl\drivers/peripheral/gpio/cy_gpio.h **** 
 183:Generated_Source\PSoC6\pdl\drivers/peripheral/gpio/cy_gpio.h **** /** GPIO driver ID */
 184:Generated_Source\PSoC6\pdl\drivers/peripheral/gpio/cy_gpio.h **** #define CY_GPIO_ID CY_PDL_DRV_ID(0x16U)
 185:Generated_Source\PSoC6\pdl\drivers/peripheral/gpio/cy_gpio.h **** 
 186:Generated_Source\PSoC6\pdl\drivers/peripheral/gpio/cy_gpio.h **** /** \} group_gpio_macros */
 187:Generated_Source\PSoC6\pdl\drivers/peripheral/gpio/cy_gpio.h **** 
 188:Generated_Source\PSoC6\pdl\drivers/peripheral/gpio/cy_gpio.h **** 
 189:Generated_Source\PSoC6\pdl\drivers/peripheral/gpio/cy_gpio.h **** /***************************************
ARM GAS  C:\Users\zinch\AppData\Local\Temp\ccRcQgKK.s 			page 6


 190:Generated_Source\PSoC6\pdl\drivers/peripheral/gpio/cy_gpio.h **** *       Enumerations
 191:Generated_Source\PSoC6\pdl\drivers/peripheral/gpio/cy_gpio.h **** ***************************************/
 192:Generated_Source\PSoC6\pdl\drivers/peripheral/gpio/cy_gpio.h **** /**
 193:Generated_Source\PSoC6\pdl\drivers/peripheral/gpio/cy_gpio.h **** * \addtogroup group_gpio_enums
 194:Generated_Source\PSoC6\pdl\drivers/peripheral/gpio/cy_gpio.h **** * \{
 195:Generated_Source\PSoC6\pdl\drivers/peripheral/gpio/cy_gpio.h **** */
 196:Generated_Source\PSoC6\pdl\drivers/peripheral/gpio/cy_gpio.h **** 
 197:Generated_Source\PSoC6\pdl\drivers/peripheral/gpio/cy_gpio.h **** /** GPIO Driver error codes */
 198:Generated_Source\PSoC6\pdl\drivers/peripheral/gpio/cy_gpio.h **** typedef enum 
 199:Generated_Source\PSoC6\pdl\drivers/peripheral/gpio/cy_gpio.h **** {
 200:Generated_Source\PSoC6\pdl\drivers/peripheral/gpio/cy_gpio.h ****     CY_GPIO_SUCCESS   = 0x00U,                                    /**< Returned successful */
 201:Generated_Source\PSoC6\pdl\drivers/peripheral/gpio/cy_gpio.h ****     CY_GPIO_BAD_PARAM = CY_GPIO_ID | CY_PDL_STATUS_ERROR | 0x01U, /**< Bad parameter was passed */
 202:Generated_Source\PSoC6\pdl\drivers/peripheral/gpio/cy_gpio.h **** } cy_en_gpio_status_t;
 203:Generated_Source\PSoC6\pdl\drivers/peripheral/gpio/cy_gpio.h **** 
 204:Generated_Source\PSoC6\pdl\drivers/peripheral/gpio/cy_gpio.h **** /** AMux switch open/close config */
 205:Generated_Source\PSoC6\pdl\drivers/peripheral/gpio/cy_gpio.h **** typedef enum
 206:Generated_Source\PSoC6\pdl\drivers/peripheral/gpio/cy_gpio.h **** {
 207:Generated_Source\PSoC6\pdl\drivers/peripheral/gpio/cy_gpio.h ****     CY_GPIO_AMUX_OPENALL,   /**< Open ground switch. Open right switch. Open left switch */
 208:Generated_Source\PSoC6\pdl\drivers/peripheral/gpio/cy_gpio.h ****     CY_GPIO_AMUX_L,         /**< Open ground switch. Open right switch. Close left switch */
 209:Generated_Source\PSoC6\pdl\drivers/peripheral/gpio/cy_gpio.h ****     CY_GPIO_AMUX_R,         /**< Open ground switch. Close right switch. Open left switch */
 210:Generated_Source\PSoC6\pdl\drivers/peripheral/gpio/cy_gpio.h ****     CY_GPIO_AMUX_LR,        /**< Open ground switch. Close right switch. Close left switch */
 211:Generated_Source\PSoC6\pdl\drivers/peripheral/gpio/cy_gpio.h ****     CY_GPIO_AMUX_G,         /**< Close ground switch. Open right switch. Open left switch */
 212:Generated_Source\PSoC6\pdl\drivers/peripheral/gpio/cy_gpio.h ****     CY_GPIO_AMUX_GL,        /**< Close ground switch. Open right switch. Close left switch */
 213:Generated_Source\PSoC6\pdl\drivers/peripheral/gpio/cy_gpio.h ****     CY_GPIO_AMUX_GR,        /**< Close ground switch. Close right switch. Open left switch */
 214:Generated_Source\PSoC6\pdl\drivers/peripheral/gpio/cy_gpio.h ****     CY_GPIO_AMUX_GLR,       /**< Close ground switch. Close right switch. Close left switch */
 215:Generated_Source\PSoC6\pdl\drivers/peripheral/gpio/cy_gpio.h **** }cy_en_gpio_amuxconnect_t;
 216:Generated_Source\PSoC6\pdl\drivers/peripheral/gpio/cy_gpio.h **** 
 217:Generated_Source\PSoC6\pdl\drivers/peripheral/gpio/cy_gpio.h **** /**
 218:Generated_Source\PSoC6\pdl\drivers/peripheral/gpio/cy_gpio.h **** * AMux Bus selection
 219:Generated_Source\PSoC6\pdl\drivers/peripheral/gpio/cy_gpio.h **** */
 220:Generated_Source\PSoC6\pdl\drivers/peripheral/gpio/cy_gpio.h **** typedef enum
 221:Generated_Source\PSoC6\pdl\drivers/peripheral/gpio/cy_gpio.h **** {
 222:Generated_Source\PSoC6\pdl\drivers/peripheral/gpio/cy_gpio.h ****     CY_GPIO_AMUXBUSA,       /**< AMuxBus A */
 223:Generated_Source\PSoC6\pdl\drivers/peripheral/gpio/cy_gpio.h ****     CY_GPIO_AMUXBUSB        /**< AMuxBus B */
 224:Generated_Source\PSoC6\pdl\drivers/peripheral/gpio/cy_gpio.h **** }cy_en_gpio_amuxselect_t;
 225:Generated_Source\PSoC6\pdl\drivers/peripheral/gpio/cy_gpio.h **** 
 226:Generated_Source\PSoC6\pdl\drivers/peripheral/gpio/cy_gpio.h **** /** \} group_gpio_enums */
 227:Generated_Source\PSoC6\pdl\drivers/peripheral/gpio/cy_gpio.h **** 
 228:Generated_Source\PSoC6\pdl\drivers/peripheral/gpio/cy_gpio.h **** 
 229:Generated_Source\PSoC6\pdl\drivers/peripheral/gpio/cy_gpio.h **** /***************************************
 230:Generated_Source\PSoC6\pdl\drivers/peripheral/gpio/cy_gpio.h **** *       Configuration Structures
 231:Generated_Source\PSoC6\pdl\drivers/peripheral/gpio/cy_gpio.h **** ***************************************/
 232:Generated_Source\PSoC6\pdl\drivers/peripheral/gpio/cy_gpio.h **** 
 233:Generated_Source\PSoC6\pdl\drivers/peripheral/gpio/cy_gpio.h **** /**
 234:Generated_Source\PSoC6\pdl\drivers/peripheral/gpio/cy_gpio.h **** * \addtogroup group_gpio_data_structures
 235:Generated_Source\PSoC6\pdl\drivers/peripheral/gpio/cy_gpio.h **** * \{
 236:Generated_Source\PSoC6\pdl\drivers/peripheral/gpio/cy_gpio.h **** */
 237:Generated_Source\PSoC6\pdl\drivers/peripheral/gpio/cy_gpio.h **** 
 238:Generated_Source\PSoC6\pdl\drivers/peripheral/gpio/cy_gpio.h **** /** This structure is used to initialize a port of GPIO pins */
 239:Generated_Source\PSoC6\pdl\drivers/peripheral/gpio/cy_gpio.h **** typedef struct 
 240:Generated_Source\PSoC6\pdl\drivers/peripheral/gpio/cy_gpio.h **** {
 241:Generated_Source\PSoC6\pdl\drivers/peripheral/gpio/cy_gpio.h ****     uint32_t out;           /**< Initial output data for the IO pins in the port */
 242:Generated_Source\PSoC6\pdl\drivers/peripheral/gpio/cy_gpio.h ****     uint32_t intrMask;      /**< Interrupt enable mask for the port interrupt */
 243:Generated_Source\PSoC6\pdl\drivers/peripheral/gpio/cy_gpio.h ****     uint32_t intrCfg;       /**< Port pin interrupt edge detection configuration */
 244:Generated_Source\PSoC6\pdl\drivers/peripheral/gpio/cy_gpio.h ****     uint32_t cfg;           /**< Port pin drive modes and input buffer enable configuration */
 245:Generated_Source\PSoC6\pdl\drivers/peripheral/gpio/cy_gpio.h ****     uint32_t cfgIn;         /**< Port pin input buffer configuration */
 246:Generated_Source\PSoC6\pdl\drivers/peripheral/gpio/cy_gpio.h ****     uint32_t cfgOut;        /**< Port pin output buffer configuration */
ARM GAS  C:\Users\zinch\AppData\Local\Temp\ccRcQgKK.s 			page 7


 247:Generated_Source\PSoC6\pdl\drivers/peripheral/gpio/cy_gpio.h ****     uint32_t cfgSIO;        /**< Port SIO pins configuration */
 248:Generated_Source\PSoC6\pdl\drivers/peripheral/gpio/cy_gpio.h ****     uint32_t sel0Active;    /**< HSIOM selection for port pins 0,1,2,3 */
 249:Generated_Source\PSoC6\pdl\drivers/peripheral/gpio/cy_gpio.h ****     uint32_t sel1Active;    /**< HSIOM selection for port pins 4,5,6,7 */
 250:Generated_Source\PSoC6\pdl\drivers/peripheral/gpio/cy_gpio.h **** } cy_stc_gpio_prt_config_t;
 251:Generated_Source\PSoC6\pdl\drivers/peripheral/gpio/cy_gpio.h **** 
 252:Generated_Source\PSoC6\pdl\drivers/peripheral/gpio/cy_gpio.h **** /** This structure is used to initialize a single GPIO pin */
 253:Generated_Source\PSoC6\pdl\drivers/peripheral/gpio/cy_gpio.h **** typedef struct
 254:Generated_Source\PSoC6\pdl\drivers/peripheral/gpio/cy_gpio.h **** {
 255:Generated_Source\PSoC6\pdl\drivers/peripheral/gpio/cy_gpio.h ****     uint32_t outVal;         /**< Pin output state */
 256:Generated_Source\PSoC6\pdl\drivers/peripheral/gpio/cy_gpio.h ****     uint32_t driveMode;      /**< Drive mode */
 257:Generated_Source\PSoC6\pdl\drivers/peripheral/gpio/cy_gpio.h ****     en_hsiom_sel_t hsiom;    /**< HSIOM selection */
 258:Generated_Source\PSoC6\pdl\drivers/peripheral/gpio/cy_gpio.h ****     uint32_t intEdge;        /**< Interrupt Edge type */
 259:Generated_Source\PSoC6\pdl\drivers/peripheral/gpio/cy_gpio.h ****     uint32_t intMask;        /**< Interrupt enable mask */
 260:Generated_Source\PSoC6\pdl\drivers/peripheral/gpio/cy_gpio.h ****     uint32_t vtrip;          /**< Input buffer voltage trip type */
 261:Generated_Source\PSoC6\pdl\drivers/peripheral/gpio/cy_gpio.h ****     uint32_t slewRate;       /**< Output buffer slew rate */
 262:Generated_Source\PSoC6\pdl\drivers/peripheral/gpio/cy_gpio.h ****     uint32_t driveSel;       /**< Drive strength */
 263:Generated_Source\PSoC6\pdl\drivers/peripheral/gpio/cy_gpio.h ****     uint32_t vregEn;         /**< SIO pair output buffer mode */
 264:Generated_Source\PSoC6\pdl\drivers/peripheral/gpio/cy_gpio.h ****     uint32_t ibufMode;       /**< SIO pair input buffer mode */
 265:Generated_Source\PSoC6\pdl\drivers/peripheral/gpio/cy_gpio.h ****     uint32_t vtripSel;       /**< SIO pair input buffer trip point */
 266:Generated_Source\PSoC6\pdl\drivers/peripheral/gpio/cy_gpio.h ****     uint32_t vrefSel;        /**< SIO pair reference voltage for input buffer trip point */
 267:Generated_Source\PSoC6\pdl\drivers/peripheral/gpio/cy_gpio.h ****     uint32_t vohSel;         /**< SIO pair regulated voltage output level */
 268:Generated_Source\PSoC6\pdl\drivers/peripheral/gpio/cy_gpio.h **** } cy_stc_gpio_pin_config_t;
 269:Generated_Source\PSoC6\pdl\drivers/peripheral/gpio/cy_gpio.h **** 
 270:Generated_Source\PSoC6\pdl\drivers/peripheral/gpio/cy_gpio.h **** /** \} group_gpio_data_structures */
 271:Generated_Source\PSoC6\pdl\drivers/peripheral/gpio/cy_gpio.h **** 
 272:Generated_Source\PSoC6\pdl\drivers/peripheral/gpio/cy_gpio.h **** /***************************************
 273:Generated_Source\PSoC6\pdl\drivers/peripheral/gpio/cy_gpio.h **** *        Constants
 274:Generated_Source\PSoC6\pdl\drivers/peripheral/gpio/cy_gpio.h **** ***************************************/
 275:Generated_Source\PSoC6\pdl\drivers/peripheral/gpio/cy_gpio.h **** 
 276:Generated_Source\PSoC6\pdl\drivers/peripheral/gpio/cy_gpio.h **** /** \cond INTERNAL */
 277:Generated_Source\PSoC6\pdl\drivers/peripheral/gpio/cy_gpio.h **** 
 278:Generated_Source\PSoC6\pdl\drivers/peripheral/gpio/cy_gpio.h **** /* General Constants */
 279:Generated_Source\PSoC6\pdl\drivers/peripheral/gpio/cy_gpio.h **** #define CY_GPIO_PRT_HALF                       (4UL)      /**< Half-way point of a GPIO port */
 280:Generated_Source\PSoC6\pdl\drivers/peripheral/gpio/cy_gpio.h **** #define CY_GPIO_PRT_DEINIT                     (0UL)      /**< De-init value for port registers */
 281:Generated_Source\PSoC6\pdl\drivers/peripheral/gpio/cy_gpio.h **** 
 282:Generated_Source\PSoC6\pdl\drivers/peripheral/gpio/cy_gpio.h **** /* GPIO Masks */
 283:Generated_Source\PSoC6\pdl\drivers/peripheral/gpio/cy_gpio.h **** #define CY_GPIO_HSIOM_MASK                     (0x1FUL)   /**< HSIOM selection mask */
 284:Generated_Source\PSoC6\pdl\drivers/peripheral/gpio/cy_gpio.h **** #define CY_GPIO_OUT_MASK                       (0x01UL)   /**< Single pin mask for OUT register */
 285:Generated_Source\PSoC6\pdl\drivers/peripheral/gpio/cy_gpio.h **** #define CY_GPIO_IN_MASK                        (0x01UL)   /**< Single pin mask for IN register */
 286:Generated_Source\PSoC6\pdl\drivers/peripheral/gpio/cy_gpio.h **** #define CY_GPIO_CFG_DM_MASK                    (0x0FUL)   /**< Single pin mask for drive mode in CF
 287:Generated_Source\PSoC6\pdl\drivers/peripheral/gpio/cy_gpio.h **** #define CY_GPIO_CFG_IN_VTRIP_SEL_MASK          (0x01UL)   /**< Single pin mask for VTRIP selection 
 288:Generated_Source\PSoC6\pdl\drivers/peripheral/gpio/cy_gpio.h **** #define CY_GPIO_CFG_OUT_SLOW_MASK              (0x01UL)   /**< Single pin mask for slew rate in CFG
 289:Generated_Source\PSoC6\pdl\drivers/peripheral/gpio/cy_gpio.h **** #define CY_GPIO_CFG_OUT_DRIVE_SEL_MASK         (0x03UL)   /**< Single pin mask for drive strength i
 290:Generated_Source\PSoC6\pdl\drivers/peripheral/gpio/cy_gpio.h **** #define CY_GPIO_INTR_STATUS_MASK               (0x01UL)   /**< Single pin mask for interrupt status
 291:Generated_Source\PSoC6\pdl\drivers/peripheral/gpio/cy_gpio.h **** #define CY_GPIO_INTR_EN_MASK                   (0x01UL)   /**< Single pin mask for interrupt status
 292:Generated_Source\PSoC6\pdl\drivers/peripheral/gpio/cy_gpio.h **** #define CY_GPIO_INTR_MASKED_MASK               (0x01UL)   /**< Single pin mask for masked interrupt
 293:Generated_Source\PSoC6\pdl\drivers/peripheral/gpio/cy_gpio.h **** #define CY_GPIO_INTR_SET_MASK                  (0x01UL)   /**< Single pin mask for setting the inte
 294:Generated_Source\PSoC6\pdl\drivers/peripheral/gpio/cy_gpio.h **** #define CY_GPIO_INTR_EDGE_MASK                 (0x03UL)   /**< Single pin mask for interrupt edge t
 295:Generated_Source\PSoC6\pdl\drivers/peripheral/gpio/cy_gpio.h **** #define CY_GPIO_INTR_FLT_EDGE_MASK             (0x07UL)   /**< Single pin mask for setting filtered
 296:Generated_Source\PSoC6\pdl\drivers/peripheral/gpio/cy_gpio.h **** 
 297:Generated_Source\PSoC6\pdl\drivers/peripheral/gpio/cy_gpio.h **** /* SIO Masks */
 298:Generated_Source\PSoC6\pdl\drivers/peripheral/gpio/cy_gpio.h **** #define CY_GPIO_VREG_EN_MASK                   (0x01UL)   /**< Single SIO pin mask for voltage regu
 299:Generated_Source\PSoC6\pdl\drivers/peripheral/gpio/cy_gpio.h **** #define CY_GPIO_IBUF_MASK                      (0x01UL)   /**< Single SIO pin mask for input buffer
 300:Generated_Source\PSoC6\pdl\drivers/peripheral/gpio/cy_gpio.h **** #define CY_GPIO_IBUF_SHIFT                     (0x01UL)   /**< Single SIO pin shift for input buffe
 301:Generated_Source\PSoC6\pdl\drivers/peripheral/gpio/cy_gpio.h **** #define CY_GPIO_VTRIP_SEL_MASK                 (0x01UL)   /**< Single SIO pin mask for the input bu
 302:Generated_Source\PSoC6\pdl\drivers/peripheral/gpio/cy_gpio.h **** #define CY_GPIO_VTRIP_SEL_SHIFT                (0x02UL)   /**< Single SIO pin shift for the input b
 303:Generated_Source\PSoC6\pdl\drivers/peripheral/gpio/cy_gpio.h **** #define CY_GPIO_VREF_SEL_MASK                  (0x03UL)   /**< Single SIO pin mask for voltage refe
ARM GAS  C:\Users\zinch\AppData\Local\Temp\ccRcQgKK.s 			page 8


 304:Generated_Source\PSoC6\pdl\drivers/peripheral/gpio/cy_gpio.h **** #define CY_GPIO_VREF_SEL_SHIFT                 (0x03UL)   /**< Single SIO pin shift for voltage ref
 305:Generated_Source\PSoC6\pdl\drivers/peripheral/gpio/cy_gpio.h **** #define CY_GPIO_VOH_SEL_MASK                   (0x07UL)   /**< Single SIO pin mask for VOH */
 306:Generated_Source\PSoC6\pdl\drivers/peripheral/gpio/cy_gpio.h **** #define CY_GPIO_VOH_SEL_SHIFT                  (0x05UL)   /**< Single SIO pin shift for VOH */
 307:Generated_Source\PSoC6\pdl\drivers/peripheral/gpio/cy_gpio.h **** 
 308:Generated_Source\PSoC6\pdl\drivers/peripheral/gpio/cy_gpio.h **** /* Special mask for SIO pin pair setting */
 309:Generated_Source\PSoC6\pdl\drivers/peripheral/gpio/cy_gpio.h **** #define CY_GPIO_SIO_ODD_PIN_MASK               (0x00FEUL) /**< SIO pin pair selection mask */
 310:Generated_Source\PSoC6\pdl\drivers/peripheral/gpio/cy_gpio.h **** #define CY_GPIO_SIO_PIN_MASK                   (0x00FFUL) /**< SIO pin pair mask */
 311:Generated_Source\PSoC6\pdl\drivers/peripheral/gpio/cy_gpio.h **** 
 312:Generated_Source\PSoC6\pdl\drivers/peripheral/gpio/cy_gpio.h **** /* Offsets */
 313:Generated_Source\PSoC6\pdl\drivers/peripheral/gpio/cy_gpio.h **** #define CY_GPIO_HSIOM_OFFSET                   (3UL)      /**< Offset for HSIOM */
 314:Generated_Source\PSoC6\pdl\drivers/peripheral/gpio/cy_gpio.h **** #define CY_GPIO_DRIVE_MODE_OFFSET              (2UL)      /**< Offset for Drive mode */
 315:Generated_Source\PSoC6\pdl\drivers/peripheral/gpio/cy_gpio.h **** #define CY_GPIO_INBUF_OFFSET                   (3UL)      /**< Offset for input buffer */
 316:Generated_Source\PSoC6\pdl\drivers/peripheral/gpio/cy_gpio.h **** #define CY_GPIO_CFG_OUT_DRIVE_OFFSET           (16UL)     /**< Offset for drive strength */
 317:Generated_Source\PSoC6\pdl\drivers/peripheral/gpio/cy_gpio.h **** #define CY_GPIO_INTR_CFG_OFFSET                (1UL)      /**< Offset for interrupt config */
 318:Generated_Source\PSoC6\pdl\drivers/peripheral/gpio/cy_gpio.h **** #define CY_GPIO_INTR_FILT_OFFSET               (18UL)     /**< Offset for filtered interrupt config
 319:Generated_Source\PSoC6\pdl\drivers/peripheral/gpio/cy_gpio.h **** #define CY_GPIO_CFG_SIO_OFFSET                 (2UL)      /**< Offset for SIO config */
 320:Generated_Source\PSoC6\pdl\drivers/peripheral/gpio/cy_gpio.h **** 
 321:Generated_Source\PSoC6\pdl\drivers/peripheral/gpio/cy_gpio.h **** /* Parameter validation constants */
 322:Generated_Source\PSoC6\pdl\drivers/peripheral/gpio/cy_gpio.h **** #define CY_GPIO_PINS_MAX                       (8UL)      /**< Number of pins in the port */
 323:Generated_Source\PSoC6\pdl\drivers/peripheral/gpio/cy_gpio.h **** #define CY_GPIO_PRT_PINS_MASK                  (0x0000000FFUL)
 324:Generated_Source\PSoC6\pdl\drivers/peripheral/gpio/cy_gpio.h **** #define CY_GPIO_PRT_INTR_CFG_EDGE_SEL_MASK     (GPIO_PRT_INTR_CFG_EDGE0_SEL_Msk | \
 325:Generated_Source\PSoC6\pdl\drivers/peripheral/gpio/cy_gpio.h ****                                                 GPIO_PRT_INTR_CFG_EDGE1_SEL_Msk | \
 326:Generated_Source\PSoC6\pdl\drivers/peripheral/gpio/cy_gpio.h ****                                                 GPIO_PRT_INTR_CFG_EDGE2_SEL_Msk | \
 327:Generated_Source\PSoC6\pdl\drivers/peripheral/gpio/cy_gpio.h ****                                                 GPIO_PRT_INTR_CFG_EDGE3_SEL_Msk | \
 328:Generated_Source\PSoC6\pdl\drivers/peripheral/gpio/cy_gpio.h ****                                                 GPIO_PRT_INTR_CFG_EDGE4_SEL_Msk | \
 329:Generated_Source\PSoC6\pdl\drivers/peripheral/gpio/cy_gpio.h ****                                                 GPIO_PRT_INTR_CFG_EDGE5_SEL_Msk | \
 330:Generated_Source\PSoC6\pdl\drivers/peripheral/gpio/cy_gpio.h ****                                                 GPIO_PRT_INTR_CFG_EDGE6_SEL_Msk | \
 331:Generated_Source\PSoC6\pdl\drivers/peripheral/gpio/cy_gpio.h ****                                                 GPIO_PRT_INTR_CFG_EDGE7_SEL_Msk)
 332:Generated_Source\PSoC6\pdl\drivers/peripheral/gpio/cy_gpio.h **** #define CY_GPIO_PRT_INTR_CFG_RANGE_MASK        (CY_GPIO_PRT_INTR_CFG_EDGE_SEL_MASK | \
 333:Generated_Source\PSoC6\pdl\drivers/peripheral/gpio/cy_gpio.h ****                                                 GPIO_PRT_INTR_CFG_FLT_EDGE_SEL_Msk | \
 334:Generated_Source\PSoC6\pdl\drivers/peripheral/gpio/cy_gpio.h ****                                                 GPIO_PRT_INTR_CFG_FLT_SEL_Msk)
 335:Generated_Source\PSoC6\pdl\drivers/peripheral/gpio/cy_gpio.h **** #define CY_GPIO_PRT_INT_MASK_MASK              (0x0000001FFUL)
 336:Generated_Source\PSoC6\pdl\drivers/peripheral/gpio/cy_gpio.h **** #define CY_GPIO_PRT_SEL_ACTIVE_MASK            (0x1FFFFFFFUL)
 337:Generated_Source\PSoC6\pdl\drivers/peripheral/gpio/cy_gpio.h **** 
 338:Generated_Source\PSoC6\pdl\drivers/peripheral/gpio/cy_gpio.h **** #define GPIO_MAX_SPLIT_CELL_SEGMENTS           (9U)
 339:Generated_Source\PSoC6\pdl\drivers/peripheral/gpio/cy_gpio.h **** 
 340:Generated_Source\PSoC6\pdl\drivers/peripheral/gpio/cy_gpio.h **** /* Parameter validation macros */
 341:Generated_Source\PSoC6\pdl\drivers/peripheral/gpio/cy_gpio.h **** #define CY_GPIO_IS_PIN_VALID(pinNum)           (CY_GPIO_PINS_MAX > (pinNum))
 342:Generated_Source\PSoC6\pdl\drivers/peripheral/gpio/cy_gpio.h **** #define CY_GPIO_IS_FILTER_PIN_VALID(pinNum)    (CY_GPIO_PINS_MAX >= (pinNum))
 343:Generated_Source\PSoC6\pdl\drivers/peripheral/gpio/cy_gpio.h **** #define CY_GPIO_IS_VALUE_VALID(outVal)         (1UL >= (outVal))
 344:Generated_Source\PSoC6\pdl\drivers/peripheral/gpio/cy_gpio.h **** #define CY_GPIO_IS_DM_VALID(driveMode)         (0U == ((driveMode) & (uint32_t)~CY_GPIO_CFG_DM_MASK
 345:Generated_Source\PSoC6\pdl\drivers/peripheral/gpio/cy_gpio.h **** 
 346:Generated_Source\PSoC6\pdl\drivers/peripheral/gpio/cy_gpio.h **** #define CY_GPIO_IS_HSIOM_VALID(hsiom)          (0U == ((hsiom) & (uint32_t)~CY_GPIO_HSIOM_MASK))
 347:Generated_Source\PSoC6\pdl\drivers/peripheral/gpio/cy_gpio.h **** 
 348:Generated_Source\PSoC6\pdl\drivers/peripheral/gpio/cy_gpio.h **** #define CY_GPIO_IS_INT_EDGE_VALID(intEdge)     ((CY_GPIO_INTR_DISABLE  == (intEdge)) || \
 349:Generated_Source\PSoC6\pdl\drivers/peripheral/gpio/cy_gpio.h ****                                                 (CY_GPIO_INTR_RISING   == (intEdge)) || \
 350:Generated_Source\PSoC6\pdl\drivers/peripheral/gpio/cy_gpio.h ****                                                 (CY_GPIO_INTR_FALLING  == (intEdge)) || \
 351:Generated_Source\PSoC6\pdl\drivers/peripheral/gpio/cy_gpio.h ****                                                 (CY_GPIO_INTR_BOTH     == (intEdge)))
 352:Generated_Source\PSoC6\pdl\drivers/peripheral/gpio/cy_gpio.h **** 
 353:Generated_Source\PSoC6\pdl\drivers/peripheral/gpio/cy_gpio.h **** #define CY_GPIO_IS_DRIVE_SEL_VALID(driveSel)   ((CY_GPIO_DRIVE_FULL    == (driveSel)) || \
 354:Generated_Source\PSoC6\pdl\drivers/peripheral/gpio/cy_gpio.h ****                                                 (CY_GPIO_DRIVE_1_2     == (driveSel)) || \
 355:Generated_Source\PSoC6\pdl\drivers/peripheral/gpio/cy_gpio.h ****                                                 (CY_GPIO_DRIVE_1_4     == (driveSel)) || \
 356:Generated_Source\PSoC6\pdl\drivers/peripheral/gpio/cy_gpio.h ****                                                 (CY_GPIO_DRIVE_1_8     == (driveSel)))
 357:Generated_Source\PSoC6\pdl\drivers/peripheral/gpio/cy_gpio.h **** 
 358:Generated_Source\PSoC6\pdl\drivers/peripheral/gpio/cy_gpio.h **** #define CY_GPIO_IS_VREF_SEL_VALID(vrefSel)     ((CY_SIO_VREF_PINREF    == (vrefSel)) || \
 359:Generated_Source\PSoC6\pdl\drivers/peripheral/gpio/cy_gpio.h ****                                                 (CY_SIO_VREF_1_2V      == (vrefSel)) || \
 360:Generated_Source\PSoC6\pdl\drivers/peripheral/gpio/cy_gpio.h ****                                                 (CY_SIO_VREF_AMUX_A    == (vrefSel)) || \
ARM GAS  C:\Users\zinch\AppData\Local\Temp\ccRcQgKK.s 			page 9


 361:Generated_Source\PSoC6\pdl\drivers/peripheral/gpio/cy_gpio.h ****                                                 (CY_SIO_VREF_AMUX_B    == (vrefSel)))
 362:Generated_Source\PSoC6\pdl\drivers/peripheral/gpio/cy_gpio.h **** 
 363:Generated_Source\PSoC6\pdl\drivers/peripheral/gpio/cy_gpio.h **** #define CY_GPIO_IS_VOH_SEL_VALID(vrefSel)      ((CY_SIO_VOH_1_00       == (vrefSel)) || \
 364:Generated_Source\PSoC6\pdl\drivers/peripheral/gpio/cy_gpio.h ****                                                 (CY_SIO_VOH_1_25       == (vrefSel)) || \
 365:Generated_Source\PSoC6\pdl\drivers/peripheral/gpio/cy_gpio.h ****                                                 (CY_SIO_VOH_1_49       == (vrefSel)) || \
 366:Generated_Source\PSoC6\pdl\drivers/peripheral/gpio/cy_gpio.h ****                                                 (CY_SIO_VOH_1_67       == (vrefSel)) || \
 367:Generated_Source\PSoC6\pdl\drivers/peripheral/gpio/cy_gpio.h ****                                                 (CY_SIO_VOH_2_08       == (vrefSel)) || \
 368:Generated_Source\PSoC6\pdl\drivers/peripheral/gpio/cy_gpio.h ****                                                 (CY_SIO_VOH_2_50       == (vrefSel)) || \
 369:Generated_Source\PSoC6\pdl\drivers/peripheral/gpio/cy_gpio.h ****                                                 (CY_SIO_VOH_2_78       == (vrefSel)) || \
 370:Generated_Source\PSoC6\pdl\drivers/peripheral/gpio/cy_gpio.h ****                                                 (CY_SIO_VOH_4_16       == (vrefSel)))
 371:Generated_Source\PSoC6\pdl\drivers/peripheral/gpio/cy_gpio.h ****                    
 372:Generated_Source\PSoC6\pdl\drivers/peripheral/gpio/cy_gpio.h **** #define CY_GPIO_IS_PIN_BIT_VALID(pinBit)       (0U == ((pinBit) & (uint32_t)~CY_GPIO_PRT_PINS_MASK)
 373:Generated_Source\PSoC6\pdl\drivers/peripheral/gpio/cy_gpio.h **** #define CY_GPIO_IS_INTR_CFG_VALID(intrCfg)     (0U == ((intrCfg) & (uint32_t)~CY_GPIO_PRT_INTR_CFG_
 374:Generated_Source\PSoC6\pdl\drivers/peripheral/gpio/cy_gpio.h **** #define CY_GPIO_IS_INTR_MASK_VALID(intrMask)   (0U == ((intrMask) & (uint32_t)~CY_GPIO_PRT_INT_MASK
 375:Generated_Source\PSoC6\pdl\drivers/peripheral/gpio/cy_gpio.h **** #define CY_GPIO_IS_SEL_ACT_VALID(selActive)    (0U == ((selActive) & (uint32_t)~CY_GPIO_PRT_SEL_ACT
 376:Generated_Source\PSoC6\pdl\drivers/peripheral/gpio/cy_gpio.h **** 
 377:Generated_Source\PSoC6\pdl\drivers/peripheral/gpio/cy_gpio.h **** #define CY_GPIO_IS_AMUX_SPLIT_VALID(switchCtrl)       (((uint32_t) (switchCtrl)) < GPIO_MAX_SPLIT_C
 378:Generated_Source\PSoC6\pdl\drivers/peripheral/gpio/cy_gpio.h **** 
 379:Generated_Source\PSoC6\pdl\drivers/peripheral/gpio/cy_gpio.h **** #define CY_GPIO_IS_AMUX_CONNECT_VALID(amuxConnect)    ((CY_GPIO_AMUX_OPENALL == (amuxConnect)) || \
 380:Generated_Source\PSoC6\pdl\drivers/peripheral/gpio/cy_gpio.h ****                                                        (CY_GPIO_AMUX_L       == (amuxConnect)) || \
 381:Generated_Source\PSoC6\pdl\drivers/peripheral/gpio/cy_gpio.h ****                                                        (CY_GPIO_AMUX_R       == (amuxConnect)) || \
 382:Generated_Source\PSoC6\pdl\drivers/peripheral/gpio/cy_gpio.h ****                                                        (CY_GPIO_AMUX_LR      == (amuxConnect)) || \
 383:Generated_Source\PSoC6\pdl\drivers/peripheral/gpio/cy_gpio.h ****                                                        (CY_GPIO_AMUX_G       == (amuxConnect)) || \
 384:Generated_Source\PSoC6\pdl\drivers/peripheral/gpio/cy_gpio.h ****                                                        (CY_GPIO_AMUX_GL      == (amuxConnect)) || \
 385:Generated_Source\PSoC6\pdl\drivers/peripheral/gpio/cy_gpio.h ****                                                        (CY_GPIO_AMUX_GR      == (amuxConnect)) || \
 386:Generated_Source\PSoC6\pdl\drivers/peripheral/gpio/cy_gpio.h ****                                                        (CY_GPIO_AMUX_GLR     == (amuxConnect)))
 387:Generated_Source\PSoC6\pdl\drivers/peripheral/gpio/cy_gpio.h **** 
 388:Generated_Source\PSoC6\pdl\drivers/peripheral/gpio/cy_gpio.h **** #define CY_GPIO_IS_AMUX_SELECT_VALID(amuxBus)       ((CY_GPIO_AMUXBUSA       == (amuxBus)) || \
 389:Generated_Source\PSoC6\pdl\drivers/peripheral/gpio/cy_gpio.h ****                                                      (CY_GPIO_AMUXBUSB       == (amuxBus)))
 390:Generated_Source\PSoC6\pdl\drivers/peripheral/gpio/cy_gpio.h **** /** \endcond */
 391:Generated_Source\PSoC6\pdl\drivers/peripheral/gpio/cy_gpio.h **** 
 392:Generated_Source\PSoC6\pdl\drivers/peripheral/gpio/cy_gpio.h **** 
 393:Generated_Source\PSoC6\pdl\drivers/peripheral/gpio/cy_gpio.h **** /***************************************
 394:Generated_Source\PSoC6\pdl\drivers/peripheral/gpio/cy_gpio.h **** *        Function Constants
 395:Generated_Source\PSoC6\pdl\drivers/peripheral/gpio/cy_gpio.h **** ***************************************/
 396:Generated_Source\PSoC6\pdl\drivers/peripheral/gpio/cy_gpio.h **** 
 397:Generated_Source\PSoC6\pdl\drivers/peripheral/gpio/cy_gpio.h **** /**
 398:Generated_Source\PSoC6\pdl\drivers/peripheral/gpio/cy_gpio.h **** * \addtogroup group_gpio_macros
 399:Generated_Source\PSoC6\pdl\drivers/peripheral/gpio/cy_gpio.h **** * \{
 400:Generated_Source\PSoC6\pdl\drivers/peripheral/gpio/cy_gpio.h **** */
 401:Generated_Source\PSoC6\pdl\drivers/peripheral/gpio/cy_gpio.h **** 
 402:Generated_Source\PSoC6\pdl\drivers/peripheral/gpio/cy_gpio.h **** /**
 403:Generated_Source\PSoC6\pdl\drivers/peripheral/gpio/cy_gpio.h **** * \defgroup group_gpio_driveModes Pin drive mode
 404:Generated_Source\PSoC6\pdl\drivers/peripheral/gpio/cy_gpio.h **** * \{
 405:Generated_Source\PSoC6\pdl\drivers/peripheral/gpio/cy_gpio.h **** * Constants to be used for setting the drive mode of the pin.
 406:Generated_Source\PSoC6\pdl\drivers/peripheral/gpio/cy_gpio.h **** */
 407:Generated_Source\PSoC6\pdl\drivers/peripheral/gpio/cy_gpio.h **** #define CY_GPIO_DM_ANALOG                      (0x00UL) /**< Analog High-Z. Input buffer off */
 408:Generated_Source\PSoC6\pdl\drivers/peripheral/gpio/cy_gpio.h **** #define CY_GPIO_DM_PULLUP_IN_OFF               (0x02UL) /**< Resistive Pull-Up. Input buffer off */
 409:Generated_Source\PSoC6\pdl\drivers/peripheral/gpio/cy_gpio.h **** #define CY_GPIO_DM_PULLDOWN_IN_OFF             (0x03UL) /**< Resistive Pull-Down. Input buffer off 
 410:Generated_Source\PSoC6\pdl\drivers/peripheral/gpio/cy_gpio.h **** #define CY_GPIO_DM_OD_DRIVESLOW_IN_OFF         (0x04UL) /**< Open Drain, Drives Low. Input buffer o
 411:Generated_Source\PSoC6\pdl\drivers/peripheral/gpio/cy_gpio.h **** #define CY_GPIO_DM_OD_DRIVESHIGH_IN_OFF        (0x05UL) /**< Open Drain, Drives High. Input buffer 
 412:Generated_Source\PSoC6\pdl\drivers/peripheral/gpio/cy_gpio.h **** #define CY_GPIO_DM_STRONG_IN_OFF               (0x06UL) /**< Strong Drive. Input buffer off */
 413:Generated_Source\PSoC6\pdl\drivers/peripheral/gpio/cy_gpio.h **** #define CY_GPIO_DM_PULLUP_DOWN_IN_OFF          (0x07UL) /**< Resistive Pull-Up/Down. Input buffer o
 414:Generated_Source\PSoC6\pdl\drivers/peripheral/gpio/cy_gpio.h **** #define CY_GPIO_DM_HIGHZ                       (0x08UL) /**< Digital High-Z. Input buffer on */
 415:Generated_Source\PSoC6\pdl\drivers/peripheral/gpio/cy_gpio.h **** #define CY_GPIO_DM_PULLUP                      (0x0AUL) /**< Resistive Pull-Up. Input buffer on */
 416:Generated_Source\PSoC6\pdl\drivers/peripheral/gpio/cy_gpio.h **** #define CY_GPIO_DM_PULLDOWN                    (0x0BUL) /**< Resistive Pull-Down. Input buffer on *
 417:Generated_Source\PSoC6\pdl\drivers/peripheral/gpio/cy_gpio.h **** #define CY_GPIO_DM_OD_DRIVESLOW                (0x0CUL) /**< Open Drain, Drives Low. Input buffer o
ARM GAS  C:\Users\zinch\AppData\Local\Temp\ccRcQgKK.s 			page 10


 418:Generated_Source\PSoC6\pdl\drivers/peripheral/gpio/cy_gpio.h **** #define CY_GPIO_DM_OD_DRIVESHIGH               (0x0DUL) /**< Open Drain, Drives High. Input buffer 
 419:Generated_Source\PSoC6\pdl\drivers/peripheral/gpio/cy_gpio.h **** #define CY_GPIO_DM_STRONG                      (0x0EUL) /**< Strong Drive. Input buffer on */
 420:Generated_Source\PSoC6\pdl\drivers/peripheral/gpio/cy_gpio.h **** #define CY_GPIO_DM_PULLUP_DOWN                 (0x0FUL) /**< Resistive Pull-Up/Down. Input buffer o
 421:Generated_Source\PSoC6\pdl\drivers/peripheral/gpio/cy_gpio.h **** /** \} */
 422:Generated_Source\PSoC6\pdl\drivers/peripheral/gpio/cy_gpio.h **** 
 423:Generated_Source\PSoC6\pdl\drivers/peripheral/gpio/cy_gpio.h **** /**
 424:Generated_Source\PSoC6\pdl\drivers/peripheral/gpio/cy_gpio.h **** * \defgroup group_gpio_vtrip Voltage trip mode
 425:Generated_Source\PSoC6\pdl\drivers/peripheral/gpio/cy_gpio.h **** * \{
 426:Generated_Source\PSoC6\pdl\drivers/peripheral/gpio/cy_gpio.h **** * Constants to be used for setting the voltage trip type on the pin.
 427:Generated_Source\PSoC6\pdl\drivers/peripheral/gpio/cy_gpio.h **** */
 428:Generated_Source\PSoC6\pdl\drivers/peripheral/gpio/cy_gpio.h **** #define CY_GPIO_VTRIP_CMOS                     (0x00UL) /**< Input buffer compatible with CMOS and 
 429:Generated_Source\PSoC6\pdl\drivers/peripheral/gpio/cy_gpio.h **** #define CY_GPIO_VTRIP_TTL                      (0x01UL) /**< Input buffer compatible with TTL and M
 430:Generated_Source\PSoC6\pdl\drivers/peripheral/gpio/cy_gpio.h **** /** \} */
 431:Generated_Source\PSoC6\pdl\drivers/peripheral/gpio/cy_gpio.h **** 
 432:Generated_Source\PSoC6\pdl\drivers/peripheral/gpio/cy_gpio.h **** /**
 433:Generated_Source\PSoC6\pdl\drivers/peripheral/gpio/cy_gpio.h **** * \defgroup group_gpio_slewRate Slew Rate Mode
 434:Generated_Source\PSoC6\pdl\drivers/peripheral/gpio/cy_gpio.h **** * \{
 435:Generated_Source\PSoC6\pdl\drivers/peripheral/gpio/cy_gpio.h **** * Constants to be used for setting the slew rate of the pin.
 436:Generated_Source\PSoC6\pdl\drivers/peripheral/gpio/cy_gpio.h **** */
 437:Generated_Source\PSoC6\pdl\drivers/peripheral/gpio/cy_gpio.h **** #define CY_GPIO_SLEW_FAST                      (0x00UL) /**< Fast slew rate */
 438:Generated_Source\PSoC6\pdl\drivers/peripheral/gpio/cy_gpio.h **** #define CY_GPIO_SLEW_SLOW                      (0x01UL) /**< Slow slew rate */
 439:Generated_Source\PSoC6\pdl\drivers/peripheral/gpio/cy_gpio.h **** /** \} */
 440:Generated_Source\PSoC6\pdl\drivers/peripheral/gpio/cy_gpio.h **** 
 441:Generated_Source\PSoC6\pdl\drivers/peripheral/gpio/cy_gpio.h **** /**
 442:Generated_Source\PSoC6\pdl\drivers/peripheral/gpio/cy_gpio.h **** * \defgroup group_gpio_driveStrength Pin drive strength
 443:Generated_Source\PSoC6\pdl\drivers/peripheral/gpio/cy_gpio.h **** * \{
 444:Generated_Source\PSoC6\pdl\drivers/peripheral/gpio/cy_gpio.h **** * Constants to be used for setting the drive strength of the pin.
 445:Generated_Source\PSoC6\pdl\drivers/peripheral/gpio/cy_gpio.h **** */
 446:Generated_Source\PSoC6\pdl\drivers/peripheral/gpio/cy_gpio.h **** #define CY_GPIO_DRIVE_FULL                     (0x00UL) /**< Full drive strength: Max drive current
 447:Generated_Source\PSoC6\pdl\drivers/peripheral/gpio/cy_gpio.h **** #define CY_GPIO_DRIVE_1_2                      (0x01UL) /**< 1/2 drive strength: 1/2 drive current 
 448:Generated_Source\PSoC6\pdl\drivers/peripheral/gpio/cy_gpio.h **** #define CY_GPIO_DRIVE_1_4                      (0x02UL) /**< 1/4 drive strength: 1/4 drive current 
 449:Generated_Source\PSoC6\pdl\drivers/peripheral/gpio/cy_gpio.h **** #define CY_GPIO_DRIVE_1_8                      (0x03UL) /**< 1/8 drive strength: 1/8 drive current 
 450:Generated_Source\PSoC6\pdl\drivers/peripheral/gpio/cy_gpio.h **** /** \} */
 451:Generated_Source\PSoC6\pdl\drivers/peripheral/gpio/cy_gpio.h **** 
 452:Generated_Source\PSoC6\pdl\drivers/peripheral/gpio/cy_gpio.h **** /**
 453:Generated_Source\PSoC6\pdl\drivers/peripheral/gpio/cy_gpio.h **** * \defgroup group_gpio_interruptTrigger Interrupt trigger type
 454:Generated_Source\PSoC6\pdl\drivers/peripheral/gpio/cy_gpio.h **** * \{
 455:Generated_Source\PSoC6\pdl\drivers/peripheral/gpio/cy_gpio.h **** * Constants to be used for setting the interrupt trigger type on the pin.
 456:Generated_Source\PSoC6\pdl\drivers/peripheral/gpio/cy_gpio.h **** */
 457:Generated_Source\PSoC6\pdl\drivers/peripheral/gpio/cy_gpio.h **** #define CY_GPIO_INTR_DISABLE                   (0x00UL) /**< Disable the pin interrupt generation *
 458:Generated_Source\PSoC6\pdl\drivers/peripheral/gpio/cy_gpio.h **** #define CY_GPIO_INTR_RISING                    (0x01UL) /**< Rising-Edge interrupt */
 459:Generated_Source\PSoC6\pdl\drivers/peripheral/gpio/cy_gpio.h **** #define CY_GPIO_INTR_FALLING                   (0x02UL) /**< Falling-Edge interrupt */
 460:Generated_Source\PSoC6\pdl\drivers/peripheral/gpio/cy_gpio.h **** #define CY_GPIO_INTR_BOTH                      (0x03UL) /**< Both-Edge interrupt */
 461:Generated_Source\PSoC6\pdl\drivers/peripheral/gpio/cy_gpio.h **** /** \} */
 462:Generated_Source\PSoC6\pdl\drivers/peripheral/gpio/cy_gpio.h **** 
 463:Generated_Source\PSoC6\pdl\drivers/peripheral/gpio/cy_gpio.h **** /**
 464:Generated_Source\PSoC6\pdl\drivers/peripheral/gpio/cy_gpio.h **** * \defgroup group_gpio_sioVreg SIO output buffer mode
 465:Generated_Source\PSoC6\pdl\drivers/peripheral/gpio/cy_gpio.h **** * \{
 466:Generated_Source\PSoC6\pdl\drivers/peripheral/gpio/cy_gpio.h **** * Constants to be used for setting the SIO output buffer mode on the pin.
 467:Generated_Source\PSoC6\pdl\drivers/peripheral/gpio/cy_gpio.h **** */
 468:Generated_Source\PSoC6\pdl\drivers/peripheral/gpio/cy_gpio.h **** #define CY_SIO_VREG_UNREGULATED                (0x00UL) /**< Unregulated output buffer */
 469:Generated_Source\PSoC6\pdl\drivers/peripheral/gpio/cy_gpio.h **** #define CY_SIO_VREG_REGULATED                  (0x01UL) /**< Regulated output buffer */
 470:Generated_Source\PSoC6\pdl\drivers/peripheral/gpio/cy_gpio.h **** /** \} */
 471:Generated_Source\PSoC6\pdl\drivers/peripheral/gpio/cy_gpio.h **** 
 472:Generated_Source\PSoC6\pdl\drivers/peripheral/gpio/cy_gpio.h **** /**
 473:Generated_Source\PSoC6\pdl\drivers/peripheral/gpio/cy_gpio.h **** * \defgroup group_gpio_sioIbuf SIO input buffer mode
 474:Generated_Source\PSoC6\pdl\drivers/peripheral/gpio/cy_gpio.h **** * \{
ARM GAS  C:\Users\zinch\AppData\Local\Temp\ccRcQgKK.s 			page 11


 475:Generated_Source\PSoC6\pdl\drivers/peripheral/gpio/cy_gpio.h **** * Constants to be used for setting the SIO input buffer mode on the pin.
 476:Generated_Source\PSoC6\pdl\drivers/peripheral/gpio/cy_gpio.h **** */
 477:Generated_Source\PSoC6\pdl\drivers/peripheral/gpio/cy_gpio.h **** #define CY_SIO_IBUF_SINGLEENDED                (0x00UL) /**< Single ended input buffer */
 478:Generated_Source\PSoC6\pdl\drivers/peripheral/gpio/cy_gpio.h **** #define CY_SIO_IBUF_DIFFERENTIAL               (0x01UL) /**< Differential input buffer */
 479:Generated_Source\PSoC6\pdl\drivers/peripheral/gpio/cy_gpio.h **** /** \} */
 480:Generated_Source\PSoC6\pdl\drivers/peripheral/gpio/cy_gpio.h **** 
 481:Generated_Source\PSoC6\pdl\drivers/peripheral/gpio/cy_gpio.h **** /**
 482:Generated_Source\PSoC6\pdl\drivers/peripheral/gpio/cy_gpio.h **** * \defgroup group_gpio_sioVtrip SIO input buffer trip-point
 483:Generated_Source\PSoC6\pdl\drivers/peripheral/gpio/cy_gpio.h **** * \{
 484:Generated_Source\PSoC6\pdl\drivers/peripheral/gpio/cy_gpio.h **** * Constants to be used for setting the SIO input buffer trip-point of the pin.
 485:Generated_Source\PSoC6\pdl\drivers/peripheral/gpio/cy_gpio.h **** */
 486:Generated_Source\PSoC6\pdl\drivers/peripheral/gpio/cy_gpio.h **** #define CY_SIO_VTRIP_CMOS                      (0x00UL) /**< CMOS input buffer (single-ended) */
 487:Generated_Source\PSoC6\pdl\drivers/peripheral/gpio/cy_gpio.h **** #define CY_SIO_VTRIP_TTL                       (0x01UL) /**< TTL input buffer (single-ended) */
 488:Generated_Source\PSoC6\pdl\drivers/peripheral/gpio/cy_gpio.h **** #define CY_SIO_VTRIP_0_5VDDIO_0_5VOH           (0x00UL) /**< 0.5xVddio or 0.5xVoh (differential) */
 489:Generated_Source\PSoC6\pdl\drivers/peripheral/gpio/cy_gpio.h **** #define CY_SIO_VTRIP_0_4VDDIO_1_0VREF          (0x01UL) /**< 0.4xVddio or 0.4xVoh (differential) */
 490:Generated_Source\PSoC6\pdl\drivers/peripheral/gpio/cy_gpio.h **** /** \} */
 491:Generated_Source\PSoC6\pdl\drivers/peripheral/gpio/cy_gpio.h **** 
 492:Generated_Source\PSoC6\pdl\drivers/peripheral/gpio/cy_gpio.h **** /**
 493:Generated_Source\PSoC6\pdl\drivers/peripheral/gpio/cy_gpio.h **** * \defgroup group_gpio_sioVref SIO reference voltage for input buffer trip-point
 494:Generated_Source\PSoC6\pdl\drivers/peripheral/gpio/cy_gpio.h **** * \{
 495:Generated_Source\PSoC6\pdl\drivers/peripheral/gpio/cy_gpio.h **** * Constants to be used for setting the reference voltage of SIO input buffer trip-point.
 496:Generated_Source\PSoC6\pdl\drivers/peripheral/gpio/cy_gpio.h **** */
 497:Generated_Source\PSoC6\pdl\drivers/peripheral/gpio/cy_gpio.h **** #define CY_SIO_VREF_PINREF                     (0x00UL) /**< Vref from analog pin */
 498:Generated_Source\PSoC6\pdl\drivers/peripheral/gpio/cy_gpio.h **** #define CY_SIO_VREF_1_2V                       (0x01UL) /**< Vref from internal 1.2V reference */
 499:Generated_Source\PSoC6\pdl\drivers/peripheral/gpio/cy_gpio.h **** #define CY_SIO_VREF_AMUX_A                     (0x02UL) /**< Vref from AMUXBUS_A */
 500:Generated_Source\PSoC6\pdl\drivers/peripheral/gpio/cy_gpio.h **** #define CY_SIO_VREF_AMUX_B                     (0x03UL) /**< Vref from AMUXBUS_B */
 501:Generated_Source\PSoC6\pdl\drivers/peripheral/gpio/cy_gpio.h **** /** \} */
 502:Generated_Source\PSoC6\pdl\drivers/peripheral/gpio/cy_gpio.h **** 
 503:Generated_Source\PSoC6\pdl\drivers/peripheral/gpio/cy_gpio.h **** /**
 504:Generated_Source\PSoC6\pdl\drivers/peripheral/gpio/cy_gpio.h **** * \defgroup group_gpio_sioVoh Regulated output voltage level (Voh) and input buffer trip-point of a
 505:Generated_Source\PSoC6\pdl\drivers/peripheral/gpio/cy_gpio.h **** * \{
 506:Generated_Source\PSoC6\pdl\drivers/peripheral/gpio/cy_gpio.h **** * Constants to be used for setting the Voh and input buffer trip-point of an SIO pair
 507:Generated_Source\PSoC6\pdl\drivers/peripheral/gpio/cy_gpio.h **** */
 508:Generated_Source\PSoC6\pdl\drivers/peripheral/gpio/cy_gpio.h **** #define CY_SIO_VOH_1_00                        (0x00UL) /**< Voh = 1 x Reference */
 509:Generated_Source\PSoC6\pdl\drivers/peripheral/gpio/cy_gpio.h **** #define CY_SIO_VOH_1_25                        (0x01UL) /**< Voh = 1.25 x Reference */
 510:Generated_Source\PSoC6\pdl\drivers/peripheral/gpio/cy_gpio.h **** #define CY_SIO_VOH_1_49                        (0x02UL) /**< Voh = 1.49 x Reference */
 511:Generated_Source\PSoC6\pdl\drivers/peripheral/gpio/cy_gpio.h **** #define CY_SIO_VOH_1_67                        (0x03UL) /**< Voh = 1.67 x Reference */
 512:Generated_Source\PSoC6\pdl\drivers/peripheral/gpio/cy_gpio.h **** #define CY_SIO_VOH_2_08                        (0x04UL) /**< Voh = 2.08 x Reference */
 513:Generated_Source\PSoC6\pdl\drivers/peripheral/gpio/cy_gpio.h **** #define CY_SIO_VOH_2_50                        (0x05UL) /**< Voh = 2.50 x Reference */
 514:Generated_Source\PSoC6\pdl\drivers/peripheral/gpio/cy_gpio.h **** #define CY_SIO_VOH_2_78                        (0x06UL) /**< Voh = 2.78 x Reference */
 515:Generated_Source\PSoC6\pdl\drivers/peripheral/gpio/cy_gpio.h **** #define CY_SIO_VOH_4_16                        (0x07UL) /**< Voh = 4.16 x Reference */
 516:Generated_Source\PSoC6\pdl\drivers/peripheral/gpio/cy_gpio.h **** /** \} */
 517:Generated_Source\PSoC6\pdl\drivers/peripheral/gpio/cy_gpio.h **** 
 518:Generated_Source\PSoC6\pdl\drivers/peripheral/gpio/cy_gpio.h **** /** \} group_gpio_macros */
 519:Generated_Source\PSoC6\pdl\drivers/peripheral/gpio/cy_gpio.h **** 
 520:Generated_Source\PSoC6\pdl\drivers/peripheral/gpio/cy_gpio.h **** /***************************************
 521:Generated_Source\PSoC6\pdl\drivers/peripheral/gpio/cy_gpio.h **** *        Function Prototypes
 522:Generated_Source\PSoC6\pdl\drivers/peripheral/gpio/cy_gpio.h **** ***************************************/
 523:Generated_Source\PSoC6\pdl\drivers/peripheral/gpio/cy_gpio.h **** 
 524:Generated_Source\PSoC6\pdl\drivers/peripheral/gpio/cy_gpio.h **** /**
 525:Generated_Source\PSoC6\pdl\drivers/peripheral/gpio/cy_gpio.h **** * \addtogroup group_gpio_functions
 526:Generated_Source\PSoC6\pdl\drivers/peripheral/gpio/cy_gpio.h **** * \{
 527:Generated_Source\PSoC6\pdl\drivers/peripheral/gpio/cy_gpio.h **** */
 528:Generated_Source\PSoC6\pdl\drivers/peripheral/gpio/cy_gpio.h **** 
 529:Generated_Source\PSoC6\pdl\drivers/peripheral/gpio/cy_gpio.h **** /**
 530:Generated_Source\PSoC6\pdl\drivers/peripheral/gpio/cy_gpio.h **** * \addtogroup group_gpio_functions_init
 531:Generated_Source\PSoC6\pdl\drivers/peripheral/gpio/cy_gpio.h **** * \{
ARM GAS  C:\Users\zinch\AppData\Local\Temp\ccRcQgKK.s 			page 12


 532:Generated_Source\PSoC6\pdl\drivers/peripheral/gpio/cy_gpio.h **** */
 533:Generated_Source\PSoC6\pdl\drivers/peripheral/gpio/cy_gpio.h **** 
 534:Generated_Source\PSoC6\pdl\drivers/peripheral/gpio/cy_gpio.h **** cy_en_gpio_status_t Cy_GPIO_Pin_Init(GPIO_PRT_Type* base, uint32_t pinNum, const cy_stc_gpio_pin_co
 535:Generated_Source\PSoC6\pdl\drivers/peripheral/gpio/cy_gpio.h **** cy_en_gpio_status_t Cy_GPIO_Port_Init(GPIO_PRT_Type* base, const cy_stc_gpio_prt_config_t *config);
 536:Generated_Source\PSoC6\pdl\drivers/peripheral/gpio/cy_gpio.h **** void Cy_GPIO_Pin_FastInit(GPIO_PRT_Type* base, uint32_t pinNum, uint32_t driveMode, uint32_t outVal
 537:Generated_Source\PSoC6\pdl\drivers/peripheral/gpio/cy_gpio.h **** void Cy_GPIO_Port_Deinit(GPIO_PRT_Type* base);
 538:Generated_Source\PSoC6\pdl\drivers/peripheral/gpio/cy_gpio.h **** __STATIC_INLINE void Cy_GPIO_SetHSIOM(GPIO_PRT_Type* base, uint32_t pinNum, en_hsiom_sel_t value);
 539:Generated_Source\PSoC6\pdl\drivers/peripheral/gpio/cy_gpio.h **** __STATIC_INLINE en_hsiom_sel_t Cy_GPIO_GetHSIOM(GPIO_PRT_Type* base, uint32_t pinNum);
 540:Generated_Source\PSoC6\pdl\drivers/peripheral/gpio/cy_gpio.h **** __STATIC_INLINE GPIO_PRT_Type* Cy_GPIO_PortToAddr(uint32_t portNum);
 541:Generated_Source\PSoC6\pdl\drivers/peripheral/gpio/cy_gpio.h **** 
 542:Generated_Source\PSoC6\pdl\drivers/peripheral/gpio/cy_gpio.h **** /** \} group_gpio_functions_init */
 543:Generated_Source\PSoC6\pdl\drivers/peripheral/gpio/cy_gpio.h **** 
 544:Generated_Source\PSoC6\pdl\drivers/peripheral/gpio/cy_gpio.h **** /**
 545:Generated_Source\PSoC6\pdl\drivers/peripheral/gpio/cy_gpio.h **** * \addtogroup group_gpio_functions_gpio
 546:Generated_Source\PSoC6\pdl\drivers/peripheral/gpio/cy_gpio.h **** * \{
 547:Generated_Source\PSoC6\pdl\drivers/peripheral/gpio/cy_gpio.h **** */
 548:Generated_Source\PSoC6\pdl\drivers/peripheral/gpio/cy_gpio.h **** 
 549:Generated_Source\PSoC6\pdl\drivers/peripheral/gpio/cy_gpio.h **** void Cy_GPIO_SetAmuxSplit(cy_en_amux_split_t switchCtrl, cy_en_gpio_amuxconnect_t amuxConnect, cy_e
 550:Generated_Source\PSoC6\pdl\drivers/peripheral/gpio/cy_gpio.h **** cy_en_gpio_amuxconnect_t Cy_GPIO_GetAmuxSplit(cy_en_amux_split_t switchCtrl, cy_en_gpio_amuxselect_
 551:Generated_Source\PSoC6\pdl\drivers/peripheral/gpio/cy_gpio.h **** 
 552:Generated_Source\PSoC6\pdl\drivers/peripheral/gpio/cy_gpio.h **** __STATIC_INLINE uint32_t Cy_GPIO_Read(GPIO_PRT_Type* base, uint32_t pinNum);
 553:Generated_Source\PSoC6\pdl\drivers/peripheral/gpio/cy_gpio.h **** __STATIC_INLINE void Cy_GPIO_Write(GPIO_PRT_Type* base, uint32_t pinNum, uint32_t value);
 554:Generated_Source\PSoC6\pdl\drivers/peripheral/gpio/cy_gpio.h **** __STATIC_INLINE uint32_t Cy_GPIO_ReadOut(GPIO_PRT_Type* base, uint32_t pinNum);
 555:Generated_Source\PSoC6\pdl\drivers/peripheral/gpio/cy_gpio.h **** __STATIC_INLINE void Cy_GPIO_Set(GPIO_PRT_Type* base, uint32_t pinNum);
 556:Generated_Source\PSoC6\pdl\drivers/peripheral/gpio/cy_gpio.h **** __STATIC_INLINE void Cy_GPIO_Clr(GPIO_PRT_Type* base, uint32_t pinNum);
 557:Generated_Source\PSoC6\pdl\drivers/peripheral/gpio/cy_gpio.h **** __STATIC_INLINE void Cy_GPIO_Inv(GPIO_PRT_Type* base, uint32_t pinNum);
 558:Generated_Source\PSoC6\pdl\drivers/peripheral/gpio/cy_gpio.h **** __STATIC_INLINE void Cy_GPIO_SetDrivemode(GPIO_PRT_Type* base, uint32_t pinNum, uint32_t value);
 559:Generated_Source\PSoC6\pdl\drivers/peripheral/gpio/cy_gpio.h **** __STATIC_INLINE uint32_t Cy_GPIO_GetDrivemode(GPIO_PRT_Type* base, uint32_t pinNum);
 560:Generated_Source\PSoC6\pdl\drivers/peripheral/gpio/cy_gpio.h **** __STATIC_INLINE void Cy_GPIO_SetVtrip(GPIO_PRT_Type* base, uint32_t pinNum, uint32_t value);
 561:Generated_Source\PSoC6\pdl\drivers/peripheral/gpio/cy_gpio.h **** __STATIC_INLINE uint32_t Cy_GPIO_GetVtrip(GPIO_PRT_Type* base, uint32_t pinNum);
 562:Generated_Source\PSoC6\pdl\drivers/peripheral/gpio/cy_gpio.h **** __STATIC_INLINE void Cy_GPIO_SetSlewRate(GPIO_PRT_Type* base, uint32_t pinNum, uint32_t value);
 563:Generated_Source\PSoC6\pdl\drivers/peripheral/gpio/cy_gpio.h **** __STATIC_INLINE uint32_t Cy_GPIO_GetSlewRate(GPIO_PRT_Type* base, uint32_t pinNum);
 564:Generated_Source\PSoC6\pdl\drivers/peripheral/gpio/cy_gpio.h **** __STATIC_INLINE void Cy_GPIO_SetDriveSel(GPIO_PRT_Type* base, uint32_t pinNum, uint32_t value);
 565:Generated_Source\PSoC6\pdl\drivers/peripheral/gpio/cy_gpio.h **** __STATIC_INLINE uint32_t Cy_GPIO_GetDriveSel(GPIO_PRT_Type* base, uint32_t pinNum);
 566:Generated_Source\PSoC6\pdl\drivers/peripheral/gpio/cy_gpio.h **** 
 567:Generated_Source\PSoC6\pdl\drivers/peripheral/gpio/cy_gpio.h **** /** \} group_gpio_functions_gpio */
 568:Generated_Source\PSoC6\pdl\drivers/peripheral/gpio/cy_gpio.h **** 
 569:Generated_Source\PSoC6\pdl\drivers/peripheral/gpio/cy_gpio.h **** /**
 570:Generated_Source\PSoC6\pdl\drivers/peripheral/gpio/cy_gpio.h **** * \addtogroup group_gpio_functions_sio
 571:Generated_Source\PSoC6\pdl\drivers/peripheral/gpio/cy_gpio.h **** * \{
 572:Generated_Source\PSoC6\pdl\drivers/peripheral/gpio/cy_gpio.h **** */
 573:Generated_Source\PSoC6\pdl\drivers/peripheral/gpio/cy_gpio.h **** 
 574:Generated_Source\PSoC6\pdl\drivers/peripheral/gpio/cy_gpio.h **** __STATIC_INLINE void Cy_GPIO_SetVregEn(GPIO_PRT_Type* base, uint32_t pinNum, uint32_t value);
 575:Generated_Source\PSoC6\pdl\drivers/peripheral/gpio/cy_gpio.h **** __STATIC_INLINE uint32_t Cy_GPIO_GetVregEn(GPIO_PRT_Type* base, uint32_t pinNum);
 576:Generated_Source\PSoC6\pdl\drivers/peripheral/gpio/cy_gpio.h **** __STATIC_INLINE void Cy_GPIO_SetIbufMode(GPIO_PRT_Type* base, uint32_t pinNum, uint32_t value);
 577:Generated_Source\PSoC6\pdl\drivers/peripheral/gpio/cy_gpio.h **** __STATIC_INLINE uint32_t Cy_GPIO_GetIbufMode(GPIO_PRT_Type* base, uint32_t pinNum);
 578:Generated_Source\PSoC6\pdl\drivers/peripheral/gpio/cy_gpio.h **** __STATIC_INLINE void Cy_GPIO_SetVtripSel(GPIO_PRT_Type* base, uint32_t pinNum, uint32_t value);
 579:Generated_Source\PSoC6\pdl\drivers/peripheral/gpio/cy_gpio.h **** __STATIC_INLINE uint32_t Cy_GPIO_GetVtripSel(GPIO_PRT_Type* base, uint32_t pinNum);
 580:Generated_Source\PSoC6\pdl\drivers/peripheral/gpio/cy_gpio.h **** __STATIC_INLINE void Cy_GPIO_SetVrefSel(GPIO_PRT_Type* base, uint32_t pinNum, uint32_t value);
 581:Generated_Source\PSoC6\pdl\drivers/peripheral/gpio/cy_gpio.h **** __STATIC_INLINE uint32_t Cy_GPIO_GetVrefSel(GPIO_PRT_Type* base, uint32_t pinNum);
 582:Generated_Source\PSoC6\pdl\drivers/peripheral/gpio/cy_gpio.h **** __STATIC_INLINE void Cy_GPIO_SetVohSel(GPIO_PRT_Type* base, uint32_t pinNum, uint32_t value);
 583:Generated_Source\PSoC6\pdl\drivers/peripheral/gpio/cy_gpio.h **** __STATIC_INLINE uint32_t Cy_GPIO_GetVohSel(GPIO_PRT_Type* base, uint32_t pinNum);
 584:Generated_Source\PSoC6\pdl\drivers/peripheral/gpio/cy_gpio.h **** 
 585:Generated_Source\PSoC6\pdl\drivers/peripheral/gpio/cy_gpio.h **** /** \} group_gpio_functions_sio */
 586:Generated_Source\PSoC6\pdl\drivers/peripheral/gpio/cy_gpio.h **** 
 587:Generated_Source\PSoC6\pdl\drivers/peripheral/gpio/cy_gpio.h **** /**
 588:Generated_Source\PSoC6\pdl\drivers/peripheral/gpio/cy_gpio.h **** * \addtogroup group_gpio_functions_interrupt
ARM GAS  C:\Users\zinch\AppData\Local\Temp\ccRcQgKK.s 			page 13


 589:Generated_Source\PSoC6\pdl\drivers/peripheral/gpio/cy_gpio.h **** * \{
 590:Generated_Source\PSoC6\pdl\drivers/peripheral/gpio/cy_gpio.h **** */
 591:Generated_Source\PSoC6\pdl\drivers/peripheral/gpio/cy_gpio.h **** 
 592:Generated_Source\PSoC6\pdl\drivers/peripheral/gpio/cy_gpio.h **** __STATIC_INLINE uint32_t Cy_GPIO_GetInterruptStatus(GPIO_PRT_Type* base, uint32_t pinNum);
 593:Generated_Source\PSoC6\pdl\drivers/peripheral/gpio/cy_gpio.h **** __STATIC_INLINE void Cy_GPIO_ClearInterrupt(GPIO_PRT_Type* base, uint32_t pinNum);
 594:Generated_Source\PSoC6\pdl\drivers/peripheral/gpio/cy_gpio.h **** __STATIC_INLINE void Cy_GPIO_SetInterruptMask(GPIO_PRT_Type* base, uint32_t pinNum, uint32_t value)
 595:Generated_Source\PSoC6\pdl\drivers/peripheral/gpio/cy_gpio.h **** __STATIC_INLINE uint32_t Cy_GPIO_GetInterruptMask(GPIO_PRT_Type* base, uint32_t pinNum);
 596:Generated_Source\PSoC6\pdl\drivers/peripheral/gpio/cy_gpio.h **** __STATIC_INLINE uint32_t Cy_GPIO_GetInterruptStatusMasked(GPIO_PRT_Type* base, uint32_t pinNum);
 597:Generated_Source\PSoC6\pdl\drivers/peripheral/gpio/cy_gpio.h **** __STATIC_INLINE void Cy_GPIO_SetSwInterrupt(GPIO_PRT_Type* base, uint32_t pinNum);
 598:Generated_Source\PSoC6\pdl\drivers/peripheral/gpio/cy_gpio.h **** __STATIC_INLINE void Cy_GPIO_SetInterruptEdge(GPIO_PRT_Type* base, uint32_t pinNum, uint32_t value)
 599:Generated_Source\PSoC6\pdl\drivers/peripheral/gpio/cy_gpio.h **** __STATIC_INLINE uint32_t Cy_GPIO_GetInterruptEdge(GPIO_PRT_Type* base, uint32_t pinNum);
 600:Generated_Source\PSoC6\pdl\drivers/peripheral/gpio/cy_gpio.h **** __STATIC_INLINE void Cy_GPIO_SetFilter(GPIO_PRT_Type* base, uint32_t value);
 601:Generated_Source\PSoC6\pdl\drivers/peripheral/gpio/cy_gpio.h **** __STATIC_INLINE uint32_t Cy_GPIO_GetFilter(GPIO_PRT_Type* base);
 602:Generated_Source\PSoC6\pdl\drivers/peripheral/gpio/cy_gpio.h **** 
 603:Generated_Source\PSoC6\pdl\drivers/peripheral/gpio/cy_gpio.h **** __STATIC_INLINE uint32_t Cy_GPIO_GetInterruptCause0(void);
 604:Generated_Source\PSoC6\pdl\drivers/peripheral/gpio/cy_gpio.h **** __STATIC_INLINE uint32_t Cy_GPIO_GetInterruptCause1(void);
 605:Generated_Source\PSoC6\pdl\drivers/peripheral/gpio/cy_gpio.h **** __STATIC_INLINE uint32_t Cy_GPIO_GetInterruptCause2(void);
 606:Generated_Source\PSoC6\pdl\drivers/peripheral/gpio/cy_gpio.h **** __STATIC_INLINE uint32_t Cy_GPIO_GetInterruptCause3(void);
 607:Generated_Source\PSoC6\pdl\drivers/peripheral/gpio/cy_gpio.h **** 
 608:Generated_Source\PSoC6\pdl\drivers/peripheral/gpio/cy_gpio.h **** /** \} group_gpio_functions_interrupt */
 609:Generated_Source\PSoC6\pdl\drivers/peripheral/gpio/cy_gpio.h **** 
 610:Generated_Source\PSoC6\pdl\drivers/peripheral/gpio/cy_gpio.h **** 
 611:Generated_Source\PSoC6\pdl\drivers/peripheral/gpio/cy_gpio.h **** /**
 612:Generated_Source\PSoC6\pdl\drivers/peripheral/gpio/cy_gpio.h **** * \addtogroup group_gpio_functions_init
 613:Generated_Source\PSoC6\pdl\drivers/peripheral/gpio/cy_gpio.h **** * \{
 614:Generated_Source\PSoC6\pdl\drivers/peripheral/gpio/cy_gpio.h **** */
 615:Generated_Source\PSoC6\pdl\drivers/peripheral/gpio/cy_gpio.h **** 
 616:Generated_Source\PSoC6\pdl\drivers/peripheral/gpio/cy_gpio.h **** /*******************************************************************************
 617:Generated_Source\PSoC6\pdl\drivers/peripheral/gpio/cy_gpio.h **** * Function Name: Cy_GPIO_SetHSIOM
 618:Generated_Source\PSoC6\pdl\drivers/peripheral/gpio/cy_gpio.h **** ****************************************************************************//**
 619:Generated_Source\PSoC6\pdl\drivers/peripheral/gpio/cy_gpio.h **** *
 620:Generated_Source\PSoC6\pdl\drivers/peripheral/gpio/cy_gpio.h **** * Configures the HSIOM connection to the pin.
 621:Generated_Source\PSoC6\pdl\drivers/peripheral/gpio/cy_gpio.h **** *
 622:Generated_Source\PSoC6\pdl\drivers/peripheral/gpio/cy_gpio.h **** * Connects the specified High-Speed Input Output Multiplexer (HSIOM) selection
 623:Generated_Source\PSoC6\pdl\drivers/peripheral/gpio/cy_gpio.h **** * to the pin.
 624:Generated_Source\PSoC6\pdl\drivers/peripheral/gpio/cy_gpio.h **** *
 625:Generated_Source\PSoC6\pdl\drivers/peripheral/gpio/cy_gpio.h **** * \param base
 626:Generated_Source\PSoC6\pdl\drivers/peripheral/gpio/cy_gpio.h **** * Pointer to the pin's port register base address
 627:Generated_Source\PSoC6\pdl\drivers/peripheral/gpio/cy_gpio.h **** *
 628:Generated_Source\PSoC6\pdl\drivers/peripheral/gpio/cy_gpio.h **** * \param pinNum
 629:Generated_Source\PSoC6\pdl\drivers/peripheral/gpio/cy_gpio.h **** * Position of the pin bit-field within the port register
 630:Generated_Source\PSoC6\pdl\drivers/peripheral/gpio/cy_gpio.h **** *
 631:Generated_Source\PSoC6\pdl\drivers/peripheral/gpio/cy_gpio.h **** * \param value
 632:Generated_Source\PSoC6\pdl\drivers/peripheral/gpio/cy_gpio.h **** * HSIOM input selection
 633:Generated_Source\PSoC6\pdl\drivers/peripheral/gpio/cy_gpio.h **** *
 634:Generated_Source\PSoC6\pdl\drivers/peripheral/gpio/cy_gpio.h **** * \note 
 635:Generated_Source\PSoC6\pdl\drivers/peripheral/gpio/cy_gpio.h **** * This function modifies a port register in a read-modify-write operation. It is
 636:Generated_Source\PSoC6\pdl\drivers/peripheral/gpio/cy_gpio.h **** * not thread safe as the resource is shared among multiple pins on a port.
 637:Generated_Source\PSoC6\pdl\drivers/peripheral/gpio/cy_gpio.h **** *
 638:Generated_Source\PSoC6\pdl\drivers/peripheral/gpio/cy_gpio.h **** * \funcusage
 639:Generated_Source\PSoC6\pdl\drivers/peripheral/gpio/cy_gpio.h **** * \snippet gpio/gpio_v1_10_sut_01.cydsn/main_cm4.c snippet_Cy_GPIO_SetHSIOM
 640:Generated_Source\PSoC6\pdl\drivers/peripheral/gpio/cy_gpio.h **** *
 641:Generated_Source\PSoC6\pdl\drivers/peripheral/gpio/cy_gpio.h **** *******************************************************************************/
 642:Generated_Source\PSoC6\pdl\drivers/peripheral/gpio/cy_gpio.h **** __STATIC_INLINE void Cy_GPIO_SetHSIOM(GPIO_PRT_Type* base, uint32_t pinNum, en_hsiom_sel_t value)
 643:Generated_Source\PSoC6\pdl\drivers/peripheral/gpio/cy_gpio.h **** {
 644:Generated_Source\PSoC6\pdl\drivers/peripheral/gpio/cy_gpio.h ****     uint32_t portNum;
 645:Generated_Source\PSoC6\pdl\drivers/peripheral/gpio/cy_gpio.h ****     uint32_t tempReg;
ARM GAS  C:\Users\zinch\AppData\Local\Temp\ccRcQgKK.s 			page 14


 646:Generated_Source\PSoC6\pdl\drivers/peripheral/gpio/cy_gpio.h ****     HSIOM_PRT_V1_Type* portAddrHSIOM;
 647:Generated_Source\PSoC6\pdl\drivers/peripheral/gpio/cy_gpio.h **** 
 648:Generated_Source\PSoC6\pdl\drivers/peripheral/gpio/cy_gpio.h ****     CY_ASSERT_L2(CY_GPIO_IS_PIN_VALID(pinNum));
 649:Generated_Source\PSoC6\pdl\drivers/peripheral/gpio/cy_gpio.h ****     CY_ASSERT_L2(CY_GPIO_IS_HSIOM_VALID(value));
 650:Generated_Source\PSoC6\pdl\drivers/peripheral/gpio/cy_gpio.h **** 
 651:Generated_Source\PSoC6\pdl\drivers/peripheral/gpio/cy_gpio.h ****     portNum = ((uint32_t)(base) - CY_GPIO_BASE) / GPIO_PRT_SECTION_SIZE;
 652:Generated_Source\PSoC6\pdl\drivers/peripheral/gpio/cy_gpio.h ****     portAddrHSIOM = (HSIOM_PRT_V1_Type*)(CY_HSIOM_BASE + (HSIOM_PRT_SECTION_SIZE * portNum));
 653:Generated_Source\PSoC6\pdl\drivers/peripheral/gpio/cy_gpio.h **** 
 654:Generated_Source\PSoC6\pdl\drivers/peripheral/gpio/cy_gpio.h ****     if(pinNum < CY_GPIO_PRT_HALF)
 655:Generated_Source\PSoC6\pdl\drivers/peripheral/gpio/cy_gpio.h ****     {
 656:Generated_Source\PSoC6\pdl\drivers/peripheral/gpio/cy_gpio.h ****         tempReg = HSIOM_PRT_PORT_SEL0(portAddrHSIOM) & ~(CY_GPIO_HSIOM_MASK << (pinNum << CY_GPIO_H
 657:Generated_Source\PSoC6\pdl\drivers/peripheral/gpio/cy_gpio.h ****         HSIOM_PRT_PORT_SEL0(portAddrHSIOM) = tempReg | ((value & CY_GPIO_HSIOM_MASK) << (pinNum << 
 658:Generated_Source\PSoC6\pdl\drivers/peripheral/gpio/cy_gpio.h ****     }
 659:Generated_Source\PSoC6\pdl\drivers/peripheral/gpio/cy_gpio.h ****     else
 660:Generated_Source\PSoC6\pdl\drivers/peripheral/gpio/cy_gpio.h ****     {
 661:Generated_Source\PSoC6\pdl\drivers/peripheral/gpio/cy_gpio.h ****         pinNum -= CY_GPIO_PRT_HALF;
 662:Generated_Source\PSoC6\pdl\drivers/peripheral/gpio/cy_gpio.h ****         tempReg = HSIOM_PRT_PORT_SEL1(portAddrHSIOM) & ~(CY_GPIO_HSIOM_MASK << (pinNum << CY_GPIO_H
 663:Generated_Source\PSoC6\pdl\drivers/peripheral/gpio/cy_gpio.h ****         HSIOM_PRT_PORT_SEL1(portAddrHSIOM) = tempReg | ((value & CY_GPIO_HSIOM_MASK) << (pinNum << 
 664:Generated_Source\PSoC6\pdl\drivers/peripheral/gpio/cy_gpio.h ****     }
 665:Generated_Source\PSoC6\pdl\drivers/peripheral/gpio/cy_gpio.h **** }
 666:Generated_Source\PSoC6\pdl\drivers/peripheral/gpio/cy_gpio.h **** 
 667:Generated_Source\PSoC6\pdl\drivers/peripheral/gpio/cy_gpio.h **** 
 668:Generated_Source\PSoC6\pdl\drivers/peripheral/gpio/cy_gpio.h **** /*******************************************************************************
 669:Generated_Source\PSoC6\pdl\drivers/peripheral/gpio/cy_gpio.h **** * Function Name: Cy_GPIO_GetHSIOM
 670:Generated_Source\PSoC6\pdl\drivers/peripheral/gpio/cy_gpio.h **** ****************************************************************************//**
 671:Generated_Source\PSoC6\pdl\drivers/peripheral/gpio/cy_gpio.h **** *
 672:Generated_Source\PSoC6\pdl\drivers/peripheral/gpio/cy_gpio.h **** * Returns the current HSIOM multiplexer connection to the pin.
 673:Generated_Source\PSoC6\pdl\drivers/peripheral/gpio/cy_gpio.h **** *
 674:Generated_Source\PSoC6\pdl\drivers/peripheral/gpio/cy_gpio.h **** * \param base
 675:Generated_Source\PSoC6\pdl\drivers/peripheral/gpio/cy_gpio.h **** * Pointer to the pin's port register base address
 676:Generated_Source\PSoC6\pdl\drivers/peripheral/gpio/cy_gpio.h **** *
 677:Generated_Source\PSoC6\pdl\drivers/peripheral/gpio/cy_gpio.h **** * \param pinNum
 678:Generated_Source\PSoC6\pdl\drivers/peripheral/gpio/cy_gpio.h **** * Position of the pin bit-field within the port register
 679:Generated_Source\PSoC6\pdl\drivers/peripheral/gpio/cy_gpio.h **** *
 680:Generated_Source\PSoC6\pdl\drivers/peripheral/gpio/cy_gpio.h **** * \return
 681:Generated_Source\PSoC6\pdl\drivers/peripheral/gpio/cy_gpio.h **** * HSIOM input selection
 682:Generated_Source\PSoC6\pdl\drivers/peripheral/gpio/cy_gpio.h **** *
 683:Generated_Source\PSoC6\pdl\drivers/peripheral/gpio/cy_gpio.h **** * \funcusage
 684:Generated_Source\PSoC6\pdl\drivers/peripheral/gpio/cy_gpio.h **** * \snippet gpio/gpio_v1_10_sut_01.cydsn/main_cm4.c snippet_Cy_GPIO_SetHSIOM
 685:Generated_Source\PSoC6\pdl\drivers/peripheral/gpio/cy_gpio.h **** *
 686:Generated_Source\PSoC6\pdl\drivers/peripheral/gpio/cy_gpio.h **** *******************************************************************************/
 687:Generated_Source\PSoC6\pdl\drivers/peripheral/gpio/cy_gpio.h **** __STATIC_INLINE en_hsiom_sel_t Cy_GPIO_GetHSIOM(GPIO_PRT_Type* base, uint32_t pinNum)
 688:Generated_Source\PSoC6\pdl\drivers/peripheral/gpio/cy_gpio.h **** {
 689:Generated_Source\PSoC6\pdl\drivers/peripheral/gpio/cy_gpio.h ****     uint32_t returnValue;
 690:Generated_Source\PSoC6\pdl\drivers/peripheral/gpio/cy_gpio.h ****     uint32_t portNum;
 691:Generated_Source\PSoC6\pdl\drivers/peripheral/gpio/cy_gpio.h ****     HSIOM_PRT_V1_Type* portAddrHSIOM;
 692:Generated_Source\PSoC6\pdl\drivers/peripheral/gpio/cy_gpio.h ****     
 693:Generated_Source\PSoC6\pdl\drivers/peripheral/gpio/cy_gpio.h ****     CY_ASSERT_L2(CY_GPIO_IS_PIN_VALID(pinNum));
 694:Generated_Source\PSoC6\pdl\drivers/peripheral/gpio/cy_gpio.h **** 
 695:Generated_Source\PSoC6\pdl\drivers/peripheral/gpio/cy_gpio.h ****     portNum = ((uint32_t)(base) - CY_GPIO_BASE) / GPIO_PRT_SECTION_SIZE;
 696:Generated_Source\PSoC6\pdl\drivers/peripheral/gpio/cy_gpio.h ****     portAddrHSIOM = (HSIOM_PRT_V1_Type*)(CY_HSIOM_BASE + (HSIOM_PRT_SECTION_SIZE * portNum));
 697:Generated_Source\PSoC6\pdl\drivers/peripheral/gpio/cy_gpio.h **** 
 698:Generated_Source\PSoC6\pdl\drivers/peripheral/gpio/cy_gpio.h ****     if(pinNum < CY_GPIO_PRT_HALF)
 699:Generated_Source\PSoC6\pdl\drivers/peripheral/gpio/cy_gpio.h ****     {
 700:Generated_Source\PSoC6\pdl\drivers/peripheral/gpio/cy_gpio.h ****         returnValue = (HSIOM_PRT_PORT_SEL0(portAddrHSIOM) >> (pinNum << CY_GPIO_HSIOM_OFFSET)) & CY
 701:Generated_Source\PSoC6\pdl\drivers/peripheral/gpio/cy_gpio.h ****     }
 702:Generated_Source\PSoC6\pdl\drivers/peripheral/gpio/cy_gpio.h ****     else
ARM GAS  C:\Users\zinch\AppData\Local\Temp\ccRcQgKK.s 			page 15


 703:Generated_Source\PSoC6\pdl\drivers/peripheral/gpio/cy_gpio.h ****     {
 704:Generated_Source\PSoC6\pdl\drivers/peripheral/gpio/cy_gpio.h ****         pinNum -= CY_GPIO_PRT_HALF;
 705:Generated_Source\PSoC6\pdl\drivers/peripheral/gpio/cy_gpio.h ****         returnValue = (HSIOM_PRT_PORT_SEL1(portAddrHSIOM) >> (pinNum << CY_GPIO_HSIOM_OFFSET)) & CY
 706:Generated_Source\PSoC6\pdl\drivers/peripheral/gpio/cy_gpio.h ****     }
 707:Generated_Source\PSoC6\pdl\drivers/peripheral/gpio/cy_gpio.h **** 
 708:Generated_Source\PSoC6\pdl\drivers/peripheral/gpio/cy_gpio.h ****     return (en_hsiom_sel_t)returnValue;
 709:Generated_Source\PSoC6\pdl\drivers/peripheral/gpio/cy_gpio.h **** }
 710:Generated_Source\PSoC6\pdl\drivers/peripheral/gpio/cy_gpio.h **** 
 711:Generated_Source\PSoC6\pdl\drivers/peripheral/gpio/cy_gpio.h **** 
 712:Generated_Source\PSoC6\pdl\drivers/peripheral/gpio/cy_gpio.h **** /*******************************************************************************
 713:Generated_Source\PSoC6\pdl\drivers/peripheral/gpio/cy_gpio.h **** * Function Name: Cy_GPIO_PortToAddr
 714:Generated_Source\PSoC6\pdl\drivers/peripheral/gpio/cy_gpio.h **** ****************************************************************************//**
 715:Generated_Source\PSoC6\pdl\drivers/peripheral/gpio/cy_gpio.h **** *
 716:Generated_Source\PSoC6\pdl\drivers/peripheral/gpio/cy_gpio.h **** * Retrieves the port address based on the given port number.
 717:Generated_Source\PSoC6\pdl\drivers/peripheral/gpio/cy_gpio.h **** *
 718:Generated_Source\PSoC6\pdl\drivers/peripheral/gpio/cy_gpio.h **** * This is a helper function to calculate the port base address when given a port
 719:Generated_Source\PSoC6\pdl\drivers/peripheral/gpio/cy_gpio.h **** * number. It is to be used when pin access needs to be calculated at runtime.
 720:Generated_Source\PSoC6\pdl\drivers/peripheral/gpio/cy_gpio.h **** *
 721:Generated_Source\PSoC6\pdl\drivers/peripheral/gpio/cy_gpio.h **** * \param portNum
 722:Generated_Source\PSoC6\pdl\drivers/peripheral/gpio/cy_gpio.h **** * Port number
 723:Generated_Source\PSoC6\pdl\drivers/peripheral/gpio/cy_gpio.h **** *
 724:Generated_Source\PSoC6\pdl\drivers/peripheral/gpio/cy_gpio.h **** * \return
 725:Generated_Source\PSoC6\pdl\drivers/peripheral/gpio/cy_gpio.h **** * Base address of the port register structure
 726:Generated_Source\PSoC6\pdl\drivers/peripheral/gpio/cy_gpio.h **** *
 727:Generated_Source\PSoC6\pdl\drivers/peripheral/gpio/cy_gpio.h **** * \funcusage
 728:Generated_Source\PSoC6\pdl\drivers/peripheral/gpio/cy_gpio.h **** * \snippet gpio/gpio_v1_10_sut_01.cydsn/main_cm4.c snippet_Cy_GPIO_PortToAddr
 729:Generated_Source\PSoC6\pdl\drivers/peripheral/gpio/cy_gpio.h **** *
 730:Generated_Source\PSoC6\pdl\drivers/peripheral/gpio/cy_gpio.h **** *******************************************************************************/
 731:Generated_Source\PSoC6\pdl\drivers/peripheral/gpio/cy_gpio.h **** __STATIC_INLINE GPIO_PRT_Type* Cy_GPIO_PortToAddr(uint32_t portNum)
 732:Generated_Source\PSoC6\pdl\drivers/peripheral/gpio/cy_gpio.h **** {
 733:Generated_Source\PSoC6\pdl\drivers/peripheral/gpio/cy_gpio.h ****     GPIO_PRT_Type* portBase;
 734:Generated_Source\PSoC6\pdl\drivers/peripheral/gpio/cy_gpio.h ****     
 735:Generated_Source\PSoC6\pdl\drivers/peripheral/gpio/cy_gpio.h ****     if(portNum < (uint32_t)IOSS_GPIO_GPIO_PORT_NR)
 736:Generated_Source\PSoC6\pdl\drivers/peripheral/gpio/cy_gpio.h ****     {
 737:Generated_Source\PSoC6\pdl\drivers/peripheral/gpio/cy_gpio.h ****         portBase = (GPIO_PRT_Type *)(CY_GPIO_BASE + (GPIO_PRT_SECTION_SIZE * portNum));
 738:Generated_Source\PSoC6\pdl\drivers/peripheral/gpio/cy_gpio.h ****     }
 739:Generated_Source\PSoC6\pdl\drivers/peripheral/gpio/cy_gpio.h ****     else
 740:Generated_Source\PSoC6\pdl\drivers/peripheral/gpio/cy_gpio.h ****     {
 741:Generated_Source\PSoC6\pdl\drivers/peripheral/gpio/cy_gpio.h ****         /* Error: Return default base address */
 742:Generated_Source\PSoC6\pdl\drivers/peripheral/gpio/cy_gpio.h ****         portBase = (GPIO_PRT_Type *)(CY_GPIO_BASE);
 743:Generated_Source\PSoC6\pdl\drivers/peripheral/gpio/cy_gpio.h ****     }
 744:Generated_Source\PSoC6\pdl\drivers/peripheral/gpio/cy_gpio.h **** 
 745:Generated_Source\PSoC6\pdl\drivers/peripheral/gpio/cy_gpio.h ****     return (portBase);
 746:Generated_Source\PSoC6\pdl\drivers/peripheral/gpio/cy_gpio.h **** }
 747:Generated_Source\PSoC6\pdl\drivers/peripheral/gpio/cy_gpio.h **** 
 748:Generated_Source\PSoC6\pdl\drivers/peripheral/gpio/cy_gpio.h **** /** \} group_gpio_functions_init */
 749:Generated_Source\PSoC6\pdl\drivers/peripheral/gpio/cy_gpio.h **** 
 750:Generated_Source\PSoC6\pdl\drivers/peripheral/gpio/cy_gpio.h **** /**
 751:Generated_Source\PSoC6\pdl\drivers/peripheral/gpio/cy_gpio.h **** * \addtogroup group_gpio_functions_gpio
 752:Generated_Source\PSoC6\pdl\drivers/peripheral/gpio/cy_gpio.h **** * \{
 753:Generated_Source\PSoC6\pdl\drivers/peripheral/gpio/cy_gpio.h **** */
 754:Generated_Source\PSoC6\pdl\drivers/peripheral/gpio/cy_gpio.h **** 
 755:Generated_Source\PSoC6\pdl\drivers/peripheral/gpio/cy_gpio.h **** /*******************************************************************************
 756:Generated_Source\PSoC6\pdl\drivers/peripheral/gpio/cy_gpio.h **** * Function Name: Cy_GPIO_Read
 757:Generated_Source\PSoC6\pdl\drivers/peripheral/gpio/cy_gpio.h **** ****************************************************************************//**
 758:Generated_Source\PSoC6\pdl\drivers/peripheral/gpio/cy_gpio.h **** *
 759:Generated_Source\PSoC6\pdl\drivers/peripheral/gpio/cy_gpio.h **** * Reads the current logic level on the input buffer of the pin.
ARM GAS  C:\Users\zinch\AppData\Local\Temp\ccRcQgKK.s 			page 16


 760:Generated_Source\PSoC6\pdl\drivers/peripheral/gpio/cy_gpio.h **** *
 761:Generated_Source\PSoC6\pdl\drivers/peripheral/gpio/cy_gpio.h **** * \param base
 762:Generated_Source\PSoC6\pdl\drivers/peripheral/gpio/cy_gpio.h **** * Pointer to the pin's port register base address
 763:Generated_Source\PSoC6\pdl\drivers/peripheral/gpio/cy_gpio.h **** *
 764:Generated_Source\PSoC6\pdl\drivers/peripheral/gpio/cy_gpio.h **** * \param pinNum
 765:Generated_Source\PSoC6\pdl\drivers/peripheral/gpio/cy_gpio.h **** * Position of the pin bit-field within the port register.
 766:Generated_Source\PSoC6\pdl\drivers/peripheral/gpio/cy_gpio.h **** * Bit position 8 is the routed pin through the port glitch filter.
 767:Generated_Source\PSoC6\pdl\drivers/peripheral/gpio/cy_gpio.h **** *
 768:Generated_Source\PSoC6\pdl\drivers/peripheral/gpio/cy_gpio.h **** * \return
 769:Generated_Source\PSoC6\pdl\drivers/peripheral/gpio/cy_gpio.h **** * Logic level present on the pin
 770:Generated_Source\PSoC6\pdl\drivers/peripheral/gpio/cy_gpio.h **** *
 771:Generated_Source\PSoC6\pdl\drivers/peripheral/gpio/cy_gpio.h **** * \funcusage
 772:Generated_Source\PSoC6\pdl\drivers/peripheral/gpio/cy_gpio.h **** * \snippet gpio/gpio_v1_10_sut_01.cydsn/main_cm4.c snippet_Cy_GPIO_Read
 773:Generated_Source\PSoC6\pdl\drivers/peripheral/gpio/cy_gpio.h **** *
 774:Generated_Source\PSoC6\pdl\drivers/peripheral/gpio/cy_gpio.h **** *******************************************************************************/
 775:Generated_Source\PSoC6\pdl\drivers/peripheral/gpio/cy_gpio.h **** __STATIC_INLINE uint32_t Cy_GPIO_Read(GPIO_PRT_Type* base, uint32_t pinNum)
 776:Generated_Source\PSoC6\pdl\drivers/peripheral/gpio/cy_gpio.h **** {
 777:Generated_Source\PSoC6\pdl\drivers/peripheral/gpio/cy_gpio.h ****     CY_ASSERT_L2(CY_GPIO_IS_FILTER_PIN_VALID(pinNum));
 778:Generated_Source\PSoC6\pdl\drivers/peripheral/gpio/cy_gpio.h ****     
 779:Generated_Source\PSoC6\pdl\drivers/peripheral/gpio/cy_gpio.h ****     return (GPIO_PRT_IN(base) >> (pinNum)) & CY_GPIO_IN_MASK;
 780:Generated_Source\PSoC6\pdl\drivers/peripheral/gpio/cy_gpio.h **** }
 781:Generated_Source\PSoC6\pdl\drivers/peripheral/gpio/cy_gpio.h **** 
 782:Generated_Source\PSoC6\pdl\drivers/peripheral/gpio/cy_gpio.h **** 
 783:Generated_Source\PSoC6\pdl\drivers/peripheral/gpio/cy_gpio.h **** /*******************************************************************************
 784:Generated_Source\PSoC6\pdl\drivers/peripheral/gpio/cy_gpio.h **** * Function Name: Cy_GPIO_Write
 785:Generated_Source\PSoC6\pdl\drivers/peripheral/gpio/cy_gpio.h **** ****************************************************************************//**
 786:Generated_Source\PSoC6\pdl\drivers/peripheral/gpio/cy_gpio.h **** *
 787:Generated_Source\PSoC6\pdl\drivers/peripheral/gpio/cy_gpio.h **** * Write a logic 0 or logic 1 state to the output driver.
 788:Generated_Source\PSoC6\pdl\drivers/peripheral/gpio/cy_gpio.h **** *
 789:Generated_Source\PSoC6\pdl\drivers/peripheral/gpio/cy_gpio.h **** * This function should be used only for software driven pins. It does not have
 790:Generated_Source\PSoC6\pdl\drivers/peripheral/gpio/cy_gpio.h **** * any effect on peripheral driven pins.
 791:Generated_Source\PSoC6\pdl\drivers/peripheral/gpio/cy_gpio.h **** *
 792:Generated_Source\PSoC6\pdl\drivers/peripheral/gpio/cy_gpio.h **** * \param base
 793:Generated_Source\PSoC6\pdl\drivers/peripheral/gpio/cy_gpio.h **** * Pointer to the pin's port register base address
 794:Generated_Source\PSoC6\pdl\drivers/peripheral/gpio/cy_gpio.h **** *
 795:Generated_Source\PSoC6\pdl\drivers/peripheral/gpio/cy_gpio.h **** * \param pinNum
 796:Generated_Source\PSoC6\pdl\drivers/peripheral/gpio/cy_gpio.h **** * Position of the pin bit-field within the port register
 797:Generated_Source\PSoC6\pdl\drivers/peripheral/gpio/cy_gpio.h **** *
 798:Generated_Source\PSoC6\pdl\drivers/peripheral/gpio/cy_gpio.h **** * \param value
 799:Generated_Source\PSoC6\pdl\drivers/peripheral/gpio/cy_gpio.h **** * Logic level to drive out on the pin
 800:Generated_Source\PSoC6\pdl\drivers/peripheral/gpio/cy_gpio.h **** *
 801:Generated_Source\PSoC6\pdl\drivers/peripheral/gpio/cy_gpio.h **** * \funcusage
 802:Generated_Source\PSoC6\pdl\drivers/peripheral/gpio/cy_gpio.h **** * \snippet gpio/gpio_v1_10_sut_01.cydsn/main_cm4.c snippet_Cy_GPIO_Write
 803:Generated_Source\PSoC6\pdl\drivers/peripheral/gpio/cy_gpio.h **** *
 804:Generated_Source\PSoC6\pdl\drivers/peripheral/gpio/cy_gpio.h **** *******************************************************************************/
 805:Generated_Source\PSoC6\pdl\drivers/peripheral/gpio/cy_gpio.h **** __STATIC_INLINE void Cy_GPIO_Write(GPIO_PRT_Type* base, uint32_t pinNum, uint32_t value)
 806:Generated_Source\PSoC6\pdl\drivers/peripheral/gpio/cy_gpio.h **** {
 807:Generated_Source\PSoC6\pdl\drivers/peripheral/gpio/cy_gpio.h ****     CY_ASSERT_L2(CY_GPIO_IS_PIN_VALID(pinNum));
 808:Generated_Source\PSoC6\pdl\drivers/peripheral/gpio/cy_gpio.h ****     CY_ASSERT_L2(CY_GPIO_IS_VALUE_VALID(value));
 809:Generated_Source\PSoC6\pdl\drivers/peripheral/gpio/cy_gpio.h **** 
 810:Generated_Source\PSoC6\pdl\drivers/peripheral/gpio/cy_gpio.h ****     /* Thread-safe: Directly access the pin registers instead of base->OUT */
 811:Generated_Source\PSoC6\pdl\drivers/peripheral/gpio/cy_gpio.h ****     if(0UL == value)
 812:Generated_Source\PSoC6\pdl\drivers/peripheral/gpio/cy_gpio.h ****     {
 813:Generated_Source\PSoC6\pdl\drivers/peripheral/gpio/cy_gpio.h ****         GPIO_PRT_OUT_CLR(base) = CY_GPIO_OUT_MASK << pinNum;
  43              		.loc 2 813 0
  44 0002 0222     		movs	r2, #2
  45 0004 254B     		ldr	r3, .L7
ARM GAS  C:\Users\zinch\AppData\Local\Temp\ccRcQgKK.s 			page 17


  46 0006 5A60     		str	r2, [r3, #4]
  47              	.LVL1:
  48              	.LBE52:
  49              	.LBE51:
  55:main_cm4.c    ****     Cy_GPIO_Write(BLUE_PORT, BLUE_NUM, 0);
  56:main_cm4.c    ****     printf("Started voice recording...\r\n");
  50              		.loc 1 56 0
  51 0008 2548     		ldr	r0, .L7+4
  52 000a FFF7FEFF 		bl	puts
  53              	.LVL2:
  57:main_cm4.c    ****     
  58:main_cm4.c    ****     ADC_Start();
  54              		.loc 1 58 0
  55 000e FFF7FEFF 		bl	ADC_Start
  56              	.LVL3:
  59:main_cm4.c    ****     ADC_StartConvert();
  57              		.loc 1 59 0
  58 0012 FFF7FEFF 		bl	ADC_StartConvert
  59              	.LVL4:
  60              	.LBB53:
  60:main_cm4.c    ****     
  61:main_cm4.c    ****     for(int idx = 0; idx < SAMPLES; ++idx){
  61              		.loc 1 61 0
  62 0016 0024     		movs	r4, #0
  63 0018 2CE0     		b	.L2
  64              	.LVL5:
  65              	.L5:
  66              	.LBB54:
  62:main_cm4.c    ****         ADC_IsEndConversion(CY_SAR_WAIT_FOR_RESULT);
  67              		.loc 1 62 0 discriminator 3
  68 001a 0120     		movs	r0, #1
  69 001c FFF7FEFF 		bl	ADC_IsEndConversion
  70              	.LVL6:
  71              	.LBB55:
  72              	.LBB56:
  73              		.file 3 "Generated_Source\\PSoC6/ADC.h"
   1:Generated_Source\PSoC6/ADC.h **** /***************************************************************************//**
   2:Generated_Source\PSoC6/ADC.h **** * \file     ADC.h
   3:Generated_Source\PSoC6/ADC.h **** * \version  3.10
   4:Generated_Source\PSoC6/ADC.h **** *
   5:Generated_Source\PSoC6/ADC.h **** * \brief
   6:Generated_Source\PSoC6/ADC.h **** * Provides the source code to the API for the ADC Component.
   7:Generated_Source\PSoC6/ADC.h **** *
   8:Generated_Source\PSoC6/ADC.h **** ********************************************************************************
   9:Generated_Source\PSoC6/ADC.h **** * \copyright
  10:Generated_Source\PSoC6/ADC.h **** * (c) 2017-2018, Cypress Semiconductor Corporation. All rights reserved.
  11:Generated_Source\PSoC6/ADC.h **** * This software, including source code, documentation and related
  12:Generated_Source\PSoC6/ADC.h **** * materials ("Software"), is owned by Cypress Semiconductor
  13:Generated_Source\PSoC6/ADC.h **** * Corporation ("Cypress") and is protected by and subject to worldwide
  14:Generated_Source\PSoC6/ADC.h **** * patent protection (United States and foreign), United States copyright
  15:Generated_Source\PSoC6/ADC.h **** * laws and international treaty provisions. Therefore, you may use this
  16:Generated_Source\PSoC6/ADC.h **** * Software only as provided in the license agreement accompanying the
  17:Generated_Source\PSoC6/ADC.h **** * software package from which you obtained this Software ("EULA").
  18:Generated_Source\PSoC6/ADC.h **** * If no EULA applies, Cypress hereby grants you a personal, nonexclusive,
  19:Generated_Source\PSoC6/ADC.h **** * non-transferable license to copy, modify, and compile the
  20:Generated_Source\PSoC6/ADC.h **** * Software source code solely for use in connection with Cypress's
  21:Generated_Source\PSoC6/ADC.h **** * integrated circuit products. Any reproduction, modification, translation,
ARM GAS  C:\Users\zinch\AppData\Local\Temp\ccRcQgKK.s 			page 18


  22:Generated_Source\PSoC6/ADC.h **** * compilation, or representation of this Software except as specified
  23:Generated_Source\PSoC6/ADC.h **** * above is prohibited without the express written permission of Cypress.
  24:Generated_Source\PSoC6/ADC.h **** * Disclaimer: THIS SOFTWARE IS PROVIDED AS-IS, WITH NO
  25:Generated_Source\PSoC6/ADC.h **** * WARRANTY OF ANY KIND, EXPRESS OR IMPLIED, INCLUDING,
  26:Generated_Source\PSoC6/ADC.h **** * BUT NOT LIMITED TO, NONINFRINGEMENT, IMPLIED
  27:Generated_Source\PSoC6/ADC.h **** * WARRANTIES OF MERCHANTABILITY AND FITNESS FOR A
  28:Generated_Source\PSoC6/ADC.h **** * PARTICULAR PURPOSE. Cypress reserves the right to make
  29:Generated_Source\PSoC6/ADC.h **** * changes to the Software without notice. Cypress does not assume any
  30:Generated_Source\PSoC6/ADC.h **** * liability arising out of the application or use of the Software or any
  31:Generated_Source\PSoC6/ADC.h **** * product or circuit described in the Software. Cypress does not
  32:Generated_Source\PSoC6/ADC.h **** * authorize its products for use in any products where a malfunction or
  33:Generated_Source\PSoC6/ADC.h **** * failure of the Cypress product may reasonably be expected to result in
  34:Generated_Source\PSoC6/ADC.h **** * significant property damage, injury or death ("High Risk Product"). By
  35:Generated_Source\PSoC6/ADC.h **** * including Cypress's product in a High Risk Product, the manufacturer
  36:Generated_Source\PSoC6/ADC.h **** * of such system or application assumes all risk of such use and in doing
  37:Generated_Source\PSoC6/ADC.h **** * so agrees to indemnify Cypress against all liability.
  38:Generated_Source\PSoC6/ADC.h **** *******************************************************************************/
  39:Generated_Source\PSoC6/ADC.h **** #if !defined(CY_ADC_H)
  40:Generated_Source\PSoC6/ADC.h **** #define CY_ADC_H
  41:Generated_Source\PSoC6/ADC.h **** 
  42:Generated_Source\PSoC6/ADC.h **** #include <cy_device_headers.h>
  43:Generated_Source\PSoC6/ADC.h **** #include <sar/cy_sar.h>
  44:Generated_Source\PSoC6/ADC.h **** 
  45:Generated_Source\PSoC6/ADC.h **** #define ADC_VREF_ROUTED                  ((0) == 1u)
  46:Generated_Source\PSoC6/ADC.h **** #if (ADC_VREF_ROUTED)
  47:Generated_Source\PSoC6/ADC.h **** #include "ADC_vrefAMux.h"
  48:Generated_Source\PSoC6/ADC.h **** #endif
  49:Generated_Source\PSoC6/ADC.h **** 
  50:Generated_Source\PSoC6/ADC.h **** #define ADC_CLOCK_INTERNAL               ((1) == 1u)
  51:Generated_Source\PSoC6/ADC.h **** #if (ADC_CLOCK_INTERNAL)
  52:Generated_Source\PSoC6/ADC.h **** #include "ADC_intSarClock.h"
  53:Generated_Source\PSoC6/ADC.h **** #endif /* ADC_CLOCK_INTERNAL */
  54:Generated_Source\PSoC6/ADC.h **** 
  55:Generated_Source\PSoC6/ADC.h **** /**
  56:Generated_Source\PSoC6/ADC.h **** * \addtogroup group_structures
  57:Generated_Source\PSoC6/ADC.h **** *
  58:Generated_Source\PSoC6/ADC.h **** */
  59:Generated_Source\PSoC6/ADC.h **** typedef struct
  60:Generated_Source\PSoC6/ADC.h **** {
  61:Generated_Source\PSoC6/ADC.h ****     uint32_t channelBase;                   /* Start of channels for the configuration */
  62:Generated_Source\PSoC6/ADC.h ****     uint32_t numChannels;                   /* Number of channels in the configuration */
  63:Generated_Source\PSoC6/ADC.h ****     const cy_stc_sar_config_t *hwConfigStc; /* PDL structure */
  64:Generated_Source\PSoC6/ADC.h ****     uint32_t miscConfig;                    /* Miscellaneous configuration bits broken down as foll
  65:Generated_Source\PSoC6/ADC.h ****                                             [0] - Freerunning: Set if the sample mode is freerunnin
  66:Generated_Source\PSoC6/ADC.h ****                                             [2] - Mux Switch 0: Set when VSSA is used for the neg i
  67:Generated_Source\PSoC6/ADC.h ****                                             */
  68:Generated_Source\PSoC6/ADC.h **** #if (ADC_CLOCK_INTERNAL)
  69:Generated_Source\PSoC6/ADC.h ****     uint32_t clkDivider;                    /* Clock divider */
  70:Generated_Source\PSoC6/ADC.h **** #endif /* ADC_CLOCK_INTERNAL */
  71:Generated_Source\PSoC6/ADC.h **** 
  72:Generated_Source\PSoC6/ADC.h **** } ADC_CONFIG_STRUCT;
  73:Generated_Source\PSoC6/ADC.h **** /** @} structures */
  74:Generated_Source\PSoC6/ADC.h **** 
  75:Generated_Source\PSoC6/ADC.h **** /*******************************************************************************
  76:Generated_Source\PSoC6/ADC.h **** * Function Prototypes
  77:Generated_Source\PSoC6/ADC.h **** *******************************************************************************/
  78:Generated_Source\PSoC6/ADC.h **** void ADC_SelectConfig(uint32_t config, uint32_t restart);
ARM GAS  C:\Users\zinch\AppData\Local\Temp\ccRcQgKK.s 			page 19


  79:Generated_Source\PSoC6/ADC.h **** void ADC_InitConfig(const ADC_CONFIG_STRUCT *config);
  80:Generated_Source\PSoC6/ADC.h **** void ADC_Init(void);
  81:Generated_Source\PSoC6/ADC.h **** __STATIC_INLINE void ADC_Enable(void);
  82:Generated_Source\PSoC6/ADC.h **** 
  83:Generated_Source\PSoC6/ADC.h **** /**
  84:Generated_Source\PSoC6/ADC.h **** * \addtogroup group_general
  85:Generated_Source\PSoC6/ADC.h **** * @{
  86:Generated_Source\PSoC6/ADC.h **** */
  87:Generated_Source\PSoC6/ADC.h **** void ADC_Start(void);
  88:Generated_Source\PSoC6/ADC.h **** void ADC_StartEx(cy_israddress userIsr);
  89:Generated_Source\PSoC6/ADC.h **** __STATIC_INLINE void ADC_Stop(void);
  90:Generated_Source\PSoC6/ADC.h **** void ADC_StartConvert(void);
  91:Generated_Source\PSoC6/ADC.h **** __STATIC_INLINE void ADC_StopConvert(void);
  92:Generated_Source\PSoC6/ADC.h **** void ADC_SetConvertMode(cy_en_sar_start_convert_sel_t mode);
  93:Generated_Source\PSoC6/ADC.h **** void ADC_SetEosMask(uint32_t mask);
  94:Generated_Source\PSoC6/ADC.h **** uint32_t ADC_IsEndConversion(cy_en_sar_return_mode_t retMode);
  95:Generated_Source\PSoC6/ADC.h **** __STATIC_INLINE int16_t ADC_GetResult16(uint32_t chan);
  96:Generated_Source\PSoC6/ADC.h **** __STATIC_INLINE int32_t ADC_GetResult32(uint32_t chan);
  97:Generated_Source\PSoC6/ADC.h **** __STATIC_INLINE void ADC_SetLowLimit(uint32_t lowLimit);
  98:Generated_Source\PSoC6/ADC.h **** __STATIC_INLINE void ADC_SetHighLimit(uint32_t highLimit);
  99:Generated_Source\PSoC6/ADC.h **** __STATIC_INLINE void ADC_SetLimitMask(uint32_t limitMask);
 100:Generated_Source\PSoC6/ADC.h **** __STATIC_INLINE void ADC_SetSatMask(uint32_t satMask);
 101:Generated_Source\PSoC6/ADC.h **** __STATIC_INLINE cy_en_sar_status_t ADC_SetOffset(uint32_t chan, int16_t offset);
 102:Generated_Source\PSoC6/ADC.h **** __STATIC_INLINE cy_en_sar_status_t ADC_SetGain(uint32_t chan, int32_t adcGain);
 103:Generated_Source\PSoC6/ADC.h **** __STATIC_INLINE float32_t ADC_CountsTo_Volts(uint32_t chan, int16_t adcCounts);
 104:Generated_Source\PSoC6/ADC.h **** __STATIC_INLINE int16_t ADC_CountsTo_mVolts(uint32_t chan, int16_t adcCounts);
 105:Generated_Source\PSoC6/ADC.h **** __STATIC_INLINE int32_t ADC_CountsTo_uVolts(uint32_t chan, int16_t adcCounts);
 106:Generated_Source\PSoC6/ADC.h **** 
 107:Generated_Source\PSoC6/ADC.h **** /** @} general */
 108:Generated_Source\PSoC6/ADC.h **** 
 109:Generated_Source\PSoC6/ADC.h **** void ADC_SetChanMask(uint32_t enableMask);
 110:Generated_Source\PSoC6/ADC.h **** 
 111:Generated_Source\PSoC6/ADC.h **** /**
 112:Generated_Source\PSoC6/ADC.h **** * \addtogroup group_power
 113:Generated_Source\PSoC6/ADC.h **** * @{
 114:Generated_Source\PSoC6/ADC.h **** */
 115:Generated_Source\PSoC6/ADC.h **** __STATIC_INLINE void ADC_Sleep(void);
 116:Generated_Source\PSoC6/ADC.h **** __STATIC_INLINE void ADC_Wakeup(void);
 117:Generated_Source\PSoC6/ADC.h **** 
 118:Generated_Source\PSoC6/ADC.h **** /** @} power */
 119:Generated_Source\PSoC6/ADC.h **** 
 120:Generated_Source\PSoC6/ADC.h **** /**
 121:Generated_Source\PSoC6/ADC.h **** * \addtogroup group_interrupt
 122:Generated_Source\PSoC6/ADC.h **** * @{
 123:Generated_Source\PSoC6/ADC.h **** */
 124:Generated_Source\PSoC6/ADC.h **** void ADC_ISR(void);
 125:Generated_Source\PSoC6/ADC.h **** void ADC_IRQ_Enable(void);
 126:Generated_Source\PSoC6/ADC.h **** void ADC_IRQ_Disable(void);
 127:Generated_Source\PSoC6/ADC.h **** 
 128:Generated_Source\PSoC6/ADC.h **** /** @} interrupt */
 129:Generated_Source\PSoC6/ADC.h **** 
 130:Generated_Source\PSoC6/ADC.h **** /*******************************************************************************
 131:Generated_Source\PSoC6/ADC.h ****                                   Parameters
 132:Generated_Source\PSoC6/ADC.h **** The parameters that are set in the customizer are redefined as constants here.
 133:Generated_Source\PSoC6/ADC.h **** *******************************************************************************/
 134:Generated_Source\PSoC6/ADC.h **** 
 135:Generated_Source\PSoC6/ADC.h **** /*  Sample Mode setting constants */
ARM GAS  C:\Users\zinch\AppData\Local\Temp\ccRcQgKK.s 			page 20


 136:Generated_Source\PSoC6/ADC.h **** #define ADC_TOTAL_CONFIGS                (1ul)
 137:Generated_Source\PSoC6/ADC.h **** 
 138:Generated_Source\PSoC6/ADC.h **** /* ************************************************************************** */
 139:Generated_Source\PSoC6/ADC.h **** /* Begin configuration 0 customizer defines                                   */
 140:Generated_Source\PSoC6/ADC.h **** /* ************************************************************************** */
 141:Generated_Source\PSoC6/ADC.h **** 
 142:Generated_Source\PSoC6/ADC.h **** #define ADC_CFG0_SAMPLE_RATE             (12000)
 143:Generated_Source\PSoC6/ADC.h **** #define ADC_CFG0_CHANNEL_BASE            (0u)
 144:Generated_Source\PSoC6/ADC.h **** #define ADC_CFG0_CHANNEL_COUNT           (1u)
 145:Generated_Source\PSoC6/ADC.h **** #define ADC_CFG0_VREF_SEL_MASK           (0x70u)
 146:Generated_Source\PSoC6/ADC.h **** #define ADC_CFG0_NOMINAL_CLOCK_FREQ      (6250000u)
 147:Generated_Source\PSoC6/ADC.h **** #define ADC_CFG0_CHANNEL_EN              (0x1u)
 148:Generated_Source\PSoC6/ADC.h **** 
 149:Generated_Source\PSoC6/ADC.h **** /* Sample Control Register */
 150:Generated_Source\PSoC6/ADC.h **** #define ADC_CFG0_SINGLE_ENDED_FORMAT     (1uL)
 151:Generated_Source\PSoC6/ADC.h **** #define ADC_CFG0_DIFFERENTIAL_FORMAT     (1uL)
 152:Generated_Source\PSoC6/ADC.h **** #define ADC_CFG0_SAMPLES_AVERAGED        (0uL)
 153:Generated_Source\PSoC6/ADC.h **** #define ADC_CFG0_RANGE_INTR_MASK         (0x0u)
 154:Generated_Source\PSoC6/ADC.h **** #define ADC_CFG0_SATURATE_INTR_MASK      (0x0u)
 155:Generated_Source\PSoC6/ADC.h **** #define ADC_CFG0_VNEG_INPUT_SEL          (0)
 156:Generated_Source\PSoC6/ADC.h **** #define ADC_CFG0_SINGLE_PRESENT          (1)
 157:Generated_Source\PSoC6/ADC.h **** #define ADC_CFG0_VREF_MV_VALUE           (3300)
 158:Generated_Source\PSoC6/ADC.h **** #define ADC_CFG0_APERTURE_TIME0          (507uL)
 159:Generated_Source\PSoC6/ADC.h **** #define ADC_CFG0_APERTURE_TIME1          (2uL)
 160:Generated_Source\PSoC6/ADC.h **** #define ADC_CFG0_APERTURE_TIME2          (2uL)
 161:Generated_Source\PSoC6/ADC.h **** #define ADC_CFG0_APERTURE_TIME3          (2uL)
 162:Generated_Source\PSoC6/ADC.h **** #define ADC_CFG0_FREERUNNING             (1u)
 163:Generated_Source\PSoC6/ADC.h **** #define ADC_CFG0_AVGERAGING_MODE         (1uL)
 164:Generated_Source\PSoC6/ADC.h **** #define ADC_CFG0_LOW_LIMIT               (1792u)
 165:Generated_Source\PSoC6/ADC.h **** #define ADC_CFG0_HIGH_LIMIT              (3584u)
 166:Generated_Source\PSoC6/ADC.h **** #define ADC_CFG0_RANGE_COND              (0uL)
 167:Generated_Source\PSoC6/ADC.h **** #define ADC_CFG0_USE_SOC                 (0uL)
 168:Generated_Source\PSoC6/ADC.h **** #define ADC_CFG0_VREF_PWR                (2uL)
 169:Generated_Source\PSoC6/ADC.h **** #define ADC_CFG0_COMP_PWR                (4uL)
 170:Generated_Source\PSoC6/ADC.h **** #define ADC_CFG0_COMP_DLY                (3uL)
 171:Generated_Source\PSoC6/ADC.h **** 
 172:Generated_Source\PSoC6/ADC.h **** /* Clock parameters*/
 173:Generated_Source\PSoC6/ADC.h **** #if (ADC_CLOCK_INTERNAL)
 174:Generated_Source\PSoC6/ADC.h ****     #define ADC_CFG0_CLOCKDIVIDER        (((CYDEV_CLK_PERICLK__HZ) / (ADC_CFG0_NOMINAL_CLOCK_FREQ))
 175:Generated_Source\PSoC6/ADC.h **** #endif /* (ADC_CLOCK_INTERNAL) */
 176:Generated_Source\PSoC6/ADC.h **** 
 177:Generated_Source\PSoC6/ADC.h **** /* ************************************************************************** */
 178:Generated_Source\PSoC6/ADC.h **** /* End configuration 0 customizer defines                                     */
 179:Generated_Source\PSoC6/ADC.h **** /* ************************************************************************** */
 180:Generated_Source\PSoC6/ADC.h **** 
 181:Generated_Source\PSoC6/ADC.h **** /* ************************************************************************** */
 182:Generated_Source\PSoC6/ADC.h **** /* Begin configuration 1 customizer defines                                   */
 183:Generated_Source\PSoC6/ADC.h **** /* ************************************************************************** */
 184:Generated_Source\PSoC6/ADC.h **** 
 185:Generated_Source\PSoC6/ADC.h **** #if(ADC_TOTAL_CONFIGS > 1)
 186:Generated_Source\PSoC6/ADC.h ****     #define ADC_CFG1_SAMPLE_RATE             ()
 187:Generated_Source\PSoC6/ADC.h ****     #define ADC_CFG1_CHANNEL_BASE            (u)
 188:Generated_Source\PSoC6/ADC.h ****     #define ADC_CFG1_CHANNEL_COUNT           (u)
 189:Generated_Source\PSoC6/ADC.h ****     #define ADC_CFG1_VREF_SEL_MASK           (u)
 190:Generated_Source\PSoC6/ADC.h ****     #define ADC_CFG1_NOMINAL_CLOCK_FREQ      (u)
 191:Generated_Source\PSoC6/ADC.h ****     #define ADC_CFG1_CHANNEL_EN              (u)
 192:Generated_Source\PSoC6/ADC.h **** 
ARM GAS  C:\Users\zinch\AppData\Local\Temp\ccRcQgKK.s 			page 21


 193:Generated_Source\PSoC6/ADC.h ****     /* Sample Control Register */
 194:Generated_Source\PSoC6/ADC.h ****     #define ADC_CFG1_SINGLE_ENDED_FORMAT     (uL)
 195:Generated_Source\PSoC6/ADC.h ****     #define ADC_CFG1_DIFFERENTIAL_FORMAT     (uL)
 196:Generated_Source\PSoC6/ADC.h ****     #define ADC_CFG1_SAMPLES_AVERAGED        (uL)
 197:Generated_Source\PSoC6/ADC.h ****     #define ADC_CFG1_RANGE_INTR_MASK         (u)
 198:Generated_Source\PSoC6/ADC.h ****     #define ADC_CFG1_SATURATE_INTR_MASK      (u)
 199:Generated_Source\PSoC6/ADC.h ****     #define ADC_CFG1_VNEG_INPUT_SEL          ()
 200:Generated_Source\PSoC6/ADC.h ****     #define ADC_CFG1_SINGLE_PRESENT          ()
 201:Generated_Source\PSoC6/ADC.h ****     #define ADC_CFG1_VREF_MV_VALUE           ()
 202:Generated_Source\PSoC6/ADC.h ****     #define ADC_CFG1_APERTURE_TIME0          (uL)
 203:Generated_Source\PSoC6/ADC.h ****     #define ADC_CFG1_APERTURE_TIME1          (uL)
 204:Generated_Source\PSoC6/ADC.h ****     #define ADC_CFG1_APERTURE_TIME2          (uL)
 205:Generated_Source\PSoC6/ADC.h ****     #define ADC_CFG1_APERTURE_TIME3          (uL)
 206:Generated_Source\PSoC6/ADC.h ****     #define ADC_CFG1_FREERUNNING             (u)
 207:Generated_Source\PSoC6/ADC.h ****     #define ADC_CFG1_AVGERAGING_MODE         (uL)
 208:Generated_Source\PSoC6/ADC.h ****     #define ADC_CFG1_LOW_LIMIT               (u)
 209:Generated_Source\PSoC6/ADC.h ****     #define ADC_CFG1_HIGH_LIMIT              (u)
 210:Generated_Source\PSoC6/ADC.h ****     #define ADC_CFG1_RANGE_COND              (uL)
 211:Generated_Source\PSoC6/ADC.h ****     #define ADC_CFG1_USE_SOC                 (0uL)
 212:Generated_Source\PSoC6/ADC.h ****     #define ADC_CFG1_VREF_PWR                (uL)
 213:Generated_Source\PSoC6/ADC.h ****     #define ADC_CFG1_COMP_PWR                (uL)
 214:Generated_Source\PSoC6/ADC.h ****     #define ADC_CFG1_COMP_DLY                (uL)
 215:Generated_Source\PSoC6/ADC.h **** 
 216:Generated_Source\PSoC6/ADC.h ****     /* Clock parameters*/
 217:Generated_Source\PSoC6/ADC.h ****     #if (ADC_CLOCK_INTERNAL)
 218:Generated_Source\PSoC6/ADC.h ****         #define ADC_CFG1_CLOCKDIVIDER        (((CYDEV_CLK_PERICLK__HZ) / (ADC_CFG1_NOMINAL_CLOCK_FR
 219:Generated_Source\PSoC6/ADC.h ****     #endif /* (ADC_CLOCK_INTERNAL) */
 220:Generated_Source\PSoC6/ADC.h **** #endif /* #if(ADC_TOTAL_CONFIGS > 1) */
 221:Generated_Source\PSoC6/ADC.h **** 
 222:Generated_Source\PSoC6/ADC.h **** /* ************************************************************************** */
 223:Generated_Source\PSoC6/ADC.h **** /* End configuration 1 customizer defines                                     */
 224:Generated_Source\PSoC6/ADC.h **** /* ************************************************************************** */
 225:Generated_Source\PSoC6/ADC.h **** 
 226:Generated_Source\PSoC6/ADC.h **** /* ************************************************************************** */
 227:Generated_Source\PSoC6/ADC.h **** /* Begin configuration 2 customizer defines                                         */
 228:Generated_Source\PSoC6/ADC.h **** /* ************************************************************************** */
 229:Generated_Source\PSoC6/ADC.h **** 
 230:Generated_Source\PSoC6/ADC.h **** #if(ADC_TOTAL_CONFIGS > 2)
 231:Generated_Source\PSoC6/ADC.h ****     #define ADC_CFG2_SAMPLE_RATE             ()
 232:Generated_Source\PSoC6/ADC.h ****     #define ADC_CFG2_CHANNEL_BASE            (u)
 233:Generated_Source\PSoC6/ADC.h ****     #define ADC_CFG2_CHANNEL_COUNT           (u)
 234:Generated_Source\PSoC6/ADC.h ****     #define ADC_CFG2_VREF_SEL_MASK           (u)
 235:Generated_Source\PSoC6/ADC.h ****     #define ADC_CFG2_NOMINAL_CLOCK_FREQ      (u)
 236:Generated_Source\PSoC6/ADC.h ****     #define ADC_CFG2_CHANNEL_EN              (u)
 237:Generated_Source\PSoC6/ADC.h **** 
 238:Generated_Source\PSoC6/ADC.h ****     /* Sample Control Register */
 239:Generated_Source\PSoC6/ADC.h ****     #define ADC_CFG2_SINGLE_ENDED_FORMAT     (uL)
 240:Generated_Source\PSoC6/ADC.h ****     #define ADC_CFG2_DIFFERENTIAL_FORMAT     (uL)
 241:Generated_Source\PSoC6/ADC.h ****     #define ADC_CFG2_SAMPLES_AVERAGED        (uL)
 242:Generated_Source\PSoC6/ADC.h ****     #define ADC_CFG2_RANGE_INTR_MASK         (u)
 243:Generated_Source\PSoC6/ADC.h ****     #define ADC_CFG2_SATURATE_INTR_MASK      (u)
 244:Generated_Source\PSoC6/ADC.h ****     #define ADC_CFG2_VNEG_INPUT_SEL          ()
 245:Generated_Source\PSoC6/ADC.h ****     #define ADC_CFG2_SINGLE_PRESENT          ()
 246:Generated_Source\PSoC6/ADC.h ****     #define ADC_CFG2_VREF_MV_VALUE           ()
 247:Generated_Source\PSoC6/ADC.h ****     #define ADC_CFG2_APERTURE_TIME0          (uL)
 248:Generated_Source\PSoC6/ADC.h ****     #define ADC_CFG2_APERTURE_TIME1          (uL)
 249:Generated_Source\PSoC6/ADC.h ****     #define ADC_CFG2_APERTURE_TIME2          (uL)
ARM GAS  C:\Users\zinch\AppData\Local\Temp\ccRcQgKK.s 			page 22


 250:Generated_Source\PSoC6/ADC.h ****     #define ADC_CFG2_APERTURE_TIME3          (uL)
 251:Generated_Source\PSoC6/ADC.h ****     #define ADC_CFG2_FREERUNNING             (u)
 252:Generated_Source\PSoC6/ADC.h ****     #define ADC_CFG2_AVGERAGING_MODE         (uL)
 253:Generated_Source\PSoC6/ADC.h ****     #define ADC_CFG2_LOW_LIMIT               (u)
 254:Generated_Source\PSoC6/ADC.h ****     #define ADC_CFG2_HIGH_LIMIT              (u)
 255:Generated_Source\PSoC6/ADC.h ****     #define ADC_CFG2_RANGE_COND              (uL)
 256:Generated_Source\PSoC6/ADC.h ****     #define ADC_CFG2_USE_SOC                 (0uL)
 257:Generated_Source\PSoC6/ADC.h ****     #define ADC_CFG2_VREF_PWR                (uL)
 258:Generated_Source\PSoC6/ADC.h ****     #define ADC_CFG2_COMP_PWR                (uL)
 259:Generated_Source\PSoC6/ADC.h ****     #define ADC_CFG2_COMP_DLY                (uL)
 260:Generated_Source\PSoC6/ADC.h **** 
 261:Generated_Source\PSoC6/ADC.h ****     /* Clock parameters*/
 262:Generated_Source\PSoC6/ADC.h ****     #if (ADC_CLOCK_INTERNAL)
 263:Generated_Source\PSoC6/ADC.h ****         #define ADC_CFG2_CLOCKDIVIDER        (((CYDEV_CLK_PERICLK__HZ) / (ADC_CFG2_NOMINAL_CLOCK_FR
 264:Generated_Source\PSoC6/ADC.h ****     #endif /* (ADC_CLOCK_INTERNAL) */
 265:Generated_Source\PSoC6/ADC.h **** #endif /* (ADC_TOTAL_CONFIGS > 2) */
 266:Generated_Source\PSoC6/ADC.h **** 
 267:Generated_Source\PSoC6/ADC.h **** 
 268:Generated_Source\PSoC6/ADC.h **** /* ************************************************************************** */
 269:Generated_Source\PSoC6/ADC.h **** /* End configuration 2 customizer defines                                     */
 270:Generated_Source\PSoC6/ADC.h **** /* ************************************************************************** */
 271:Generated_Source\PSoC6/ADC.h **** 
 272:Generated_Source\PSoC6/ADC.h **** /* ************************************************************************** */
 273:Generated_Source\PSoC6/ADC.h **** /* Begin configuration 3 customizer defines                                   */
 274:Generated_Source\PSoC6/ADC.h **** /* ************************************************************************** */
 275:Generated_Source\PSoC6/ADC.h **** #if(ADC_TOTAL_CONFIGS > 3)
 276:Generated_Source\PSoC6/ADC.h ****     #define ADC_CFG3_SAMPLE_RATE             ()
 277:Generated_Source\PSoC6/ADC.h ****     #define ADC_CFG3_CHANNEL_BASE            (u)
 278:Generated_Source\PSoC6/ADC.h ****     #define ADC_CFG3_CHANNEL_COUNT           (u)
 279:Generated_Source\PSoC6/ADC.h ****     #define ADC_CFG3_VREF_SEL_MASK           (u)
 280:Generated_Source\PSoC6/ADC.h ****     #define ADC_CFG3_NOMINAL_CLOCK_FREQ      (u)
 281:Generated_Source\PSoC6/ADC.h ****     #define ADC_CFG3_CHANNEL_EN              (u)
 282:Generated_Source\PSoC6/ADC.h **** 
 283:Generated_Source\PSoC6/ADC.h ****     /* Sample Control Register */
 284:Generated_Source\PSoC6/ADC.h ****     #define ADC_CFG3_SINGLE_ENDED_FORMAT     (uL)
 285:Generated_Source\PSoC6/ADC.h ****     #define ADC_CFG3_DIFFERENTIAL_FORMAT     (uL)
 286:Generated_Source\PSoC6/ADC.h ****     #define ADC_CFG3_SAMPLES_AVERAGED        (uL)
 287:Generated_Source\PSoC6/ADC.h ****     #define ADC_CFG3_RANGE_INTR_MASK         (u)
 288:Generated_Source\PSoC6/ADC.h ****     #define ADC_CFG3_SATURATE_INTR_MASK      (u)
 289:Generated_Source\PSoC6/ADC.h ****     #define ADC_CFG3_VNEG_INPUT_SEL          ()
 290:Generated_Source\PSoC6/ADC.h ****     #define ADC_CFG3_SINGLE_PRESENT          ()
 291:Generated_Source\PSoC6/ADC.h ****     #define ADC_CFG3_VREF_MV_VALUE           ()
 292:Generated_Source\PSoC6/ADC.h ****     #define ADC_CFG3_APERTURE_TIME0          (uL)
 293:Generated_Source\PSoC6/ADC.h ****     #define ADC_CFG3_APERTURE_TIME1          (uL)
 294:Generated_Source\PSoC6/ADC.h ****     #define ADC_CFG3_APERTURE_TIME2          (uL)
 295:Generated_Source\PSoC6/ADC.h ****     #define ADC_CFG3_APERTURE_TIME3          (uL)
 296:Generated_Source\PSoC6/ADC.h ****     #define ADC_CFG3_FREERUNNING             (u)
 297:Generated_Source\PSoC6/ADC.h ****     #define ADC_CFG3_AVGERAGING_MODE         (uL)
 298:Generated_Source\PSoC6/ADC.h ****     #define ADC_CFG3_LOW_LIMIT               (u)
 299:Generated_Source\PSoC6/ADC.h ****     #define ADC_CFG3_HIGH_LIMIT              (u)
 300:Generated_Source\PSoC6/ADC.h ****     #define ADC_CFG3_RANGE_COND              (uL)
 301:Generated_Source\PSoC6/ADC.h ****     #define ADC_CFG3_USE_SOC                 (0uL)
 302:Generated_Source\PSoC6/ADC.h ****     #define ADC_CFG3_VREF_PWR                (uL)
 303:Generated_Source\PSoC6/ADC.h ****     #define ADC_CFG3_COMP_PWR                (uL)
 304:Generated_Source\PSoC6/ADC.h ****     #define ADC_CFG3_COMP_DLY                (uL)
 305:Generated_Source\PSoC6/ADC.h **** 
 306:Generated_Source\PSoC6/ADC.h ****     /* Clock parameters*/
ARM GAS  C:\Users\zinch\AppData\Local\Temp\ccRcQgKK.s 			page 23


 307:Generated_Source\PSoC6/ADC.h ****     #if (ADC_CLOCK_INTERNAL)
 308:Generated_Source\PSoC6/ADC.h ****         #define ADC_CFG3_CLOCKDIVIDER        (((CYDEV_CLK_PERICLK__HZ) / (ADC_CFG3_NOMINAL_CLOCK_FR
 309:Generated_Source\PSoC6/ADC.h ****     #endif /* (ADC_CLOCK_INTERNAL) */
 310:Generated_Source\PSoC6/ADC.h **** #endif /* (ADC_TOTAL_CONFIGS > 3) */
 311:Generated_Source\PSoC6/ADC.h **** 
 312:Generated_Source\PSoC6/ADC.h **** /* ************************************************************************** */
 313:Generated_Source\PSoC6/ADC.h **** /* End configuration 3 customizer defines                                     */
 314:Generated_Source\PSoC6/ADC.h **** /* ************************************************************************** */
 315:Generated_Source\PSoC6/ADC.h **** 
 316:Generated_Source\PSoC6/ADC.h **** #define ADC_DEFAULT_SAMPLE_MODE_SEL      (0u)
 317:Generated_Source\PSoC6/ADC.h **** #define ADC_FREERUNNING                  (1u)
 318:Generated_Source\PSoC6/ADC.h **** #define ADC_HARDWARESOC                  (1u)
 319:Generated_Source\PSoC6/ADC.h **** #define ADC_NEG_SEL_VSSA_KELVIN          (0x0uL)
 320:Generated_Source\PSoC6/ADC.h **** #define ADC_NEG_SEL_VREF                 (0x7uL)
 321:Generated_Source\PSoC6/ADC.h **** #define ADC_PWR_CTRL_VREF_NORMAL_PWR     (0x0uL)
 322:Generated_Source\PSoC6/ADC.h **** 
 323:Generated_Source\PSoC6/ADC.h **** /** ADC_TOTAL_CHANNELS_NUM
 324:Generated_Source\PSoC6/ADC.h **** * This constant represents the number of input channels available for scanning.
 325:Generated_Source\PSoC6/ADC.h **** */
 326:Generated_Source\PSoC6/ADC.h **** #define ADC_TOTAL_CHANNELS_NUM           (1u)
 327:Generated_Source\PSoC6/ADC.h **** 
 328:Generated_Source\PSoC6/ADC.h **** /*******************************************************************************
 329:Generated_Source\PSoC6/ADC.h **** *    Variables with External Linkage
 330:Generated_Source\PSoC6/ADC.h **** *******************************************************************************/
 331:Generated_Source\PSoC6/ADC.h **** /**
 332:Generated_Source\PSoC6/ADC.h **** * \addtogroup group_globals
 333:Generated_Source\PSoC6/ADC.h **** * Globals are noted in the descriptions of the functions that use globals.
 334:Generated_Source\PSoC6/ADC.h **** * They are marked with (R), (W), or (RW) noting whether the variable is read,
 335:Generated_Source\PSoC6/ADC.h **** * write, or read/write.
 336:Generated_Source\PSoC6/ADC.h **** * @{
 337:Generated_Source\PSoC6/ADC.h **** */
 338:Generated_Source\PSoC6/ADC.h **** 
 339:Generated_Source\PSoC6/ADC.h **** /** ADC_initVar
 340:Generated_Source\PSoC6/ADC.h **** * The ADC_initVar variable is used to indicate
 341:Generated_Source\PSoC6/ADC.h **** * initial configuration of this component. The variable is initialized to zero and
 342:Generated_Source\PSoC6/ADC.h **** * set to 1 the first time ADC_Start() is called. This allows for
 343:Generated_Source\PSoC6/ADC.h **** * component initialization without reinitialization in all subsequent calls to the
 344:Generated_Source\PSoC6/ADC.h **** * ADC_Start() routine.
 345:Generated_Source\PSoC6/ADC.h **** *
 346:Generated_Source\PSoC6/ADC.h **** * If reinitialization of the component is required, then the ADC_Init() function
 347:Generated_Source\PSoC6/ADC.h **** * can be called before the ADC_Start() or ADC_Enable()
 348:Generated_Source\PSoC6/ADC.h **** * functions.
 349:Generated_Source\PSoC6/ADC.h **** */
 350:Generated_Source\PSoC6/ADC.h **** extern uint8_t ADC_initVar;
 351:Generated_Source\PSoC6/ADC.h **** extern uint8_t ADC_selected;
 352:Generated_Source\PSoC6/ADC.h **** extern uint32_t ADC_currentConfig;
 353:Generated_Source\PSoC6/ADC.h **** 
 354:Generated_Source\PSoC6/ADC.h **** #define ADC_INIT_VAR_INIT_FLAG     (0x01u)
 355:Generated_Source\PSoC6/ADC.h **** 
 356:Generated_Source\PSoC6/ADC.h **** extern const ADC_CONFIG_STRUCT ADC_allConfigs[ADC_TOTAL_CONFIGS];
 357:Generated_Source\PSoC6/ADC.h **** 
 358:Generated_Source\PSoC6/ADC.h **** /* SysPm callback structure for deep sleep entry and exit.
 359:Generated_Source\PSoC6/ADC.h ****  * Call the Cy_SysPm_RegisterCallback function with this
 360:Generated_Source\PSoC6/ADC.h ****  * structure before calling Cy_SysPm_DeepSleep.
 361:Generated_Source\PSoC6/ADC.h **** */
 362:Generated_Source\PSoC6/ADC.h **** extern cy_stc_syspm_callback_t ADC_DeepSleepCallbackStruct;
 363:Generated_Source\PSoC6/ADC.h **** 
ARM GAS  C:\Users\zinch\AppData\Local\Temp\ccRcQgKK.s 			page 24


 364:Generated_Source\PSoC6/ADC.h **** /** @} globals */
 365:Generated_Source\PSoC6/ADC.h **** 
 366:Generated_Source\PSoC6/ADC.h **** /* ************************************************************************** */
 367:Generated_Source\PSoC6/ADC.h **** /* *******************Global MUX_SWITCH0 Definitions ************************ */
 368:Generated_Source\PSoC6/ADC.h **** /* ************************************************************************** */
 369:Generated_Source\PSoC6/ADC.h **** #if(ADC_CFG0_VNEG_INPUT_SEL == ADC_NEG_SEL_VSSA_KELVIN)
 370:Generated_Source\PSoC6/ADC.h ****     /* Do not connect VSSA to VMINUS when one channel in differential mode used */
 371:Generated_Source\PSoC6/ADC.h ****     #if((ADC_TOTAL_CHANNELS_NUM == 1u) && (ADC_CFG0_SINGLE_PRESENT == 0u))
 372:Generated_Source\PSoC6/ADC.h ****         #define ADC_MUX_SWITCH0_INIT      0u
 373:Generated_Source\PSoC6/ADC.h ****     #else    /* multiple channels or one single ended channel */
 374:Generated_Source\PSoC6/ADC.h ****         #define ADC_MUX_SWITCH0_INIT      1u
 375:Generated_Source\PSoC6/ADC.h ****     #endif /* ((ADC_TOTAL_CHANNELS_NUM == 1u) && (ADC_CFG0_SINGLE_PRESENT == 0u)) */
 376:Generated_Source\PSoC6/ADC.h **** #else
 377:Generated_Source\PSoC6/ADC.h ****     #define ADC_MUX_SWITCH0_INIT          0u
 378:Generated_Source\PSoC6/ADC.h **** #endif /* ADC_CFG0_VNEG_INPUT_SEL == ADC_NEG_SEL_VSSA_KELVIN */
 379:Generated_Source\PSoC6/ADC.h **** 
 380:Generated_Source\PSoC6/ADC.h **** /* ************************************************************************** */
 381:Generated_Source\PSoC6/ADC.h **** /* Begin configuration 0 calculated defines                                   */
 382:Generated_Source\PSoC6/ADC.h **** /* ************************************************************************** */
 383:Generated_Source\PSoC6/ADC.h **** #define ADC_CFG0_SAMPLE_TIME01_INIT \
 384:Generated_Source\PSoC6/ADC.h ****         ((ADC_CFG0_APERTURE_TIME0 \
 385:Generated_Source\PSoC6/ADC.h ****         << SAR_SAMPLE_TIME01_SAMPLE_TIME0_Pos) \
 386:Generated_Source\PSoC6/ADC.h ****         | (ADC_CFG0_APERTURE_TIME1 \
 387:Generated_Source\PSoC6/ADC.h ****         << SAR_SAMPLE_TIME01_SAMPLE_TIME1_Pos))
 388:Generated_Source\PSoC6/ADC.h **** 
 389:Generated_Source\PSoC6/ADC.h **** #define ADC_CFG0_SAMPLE_TIME23_INIT \
 390:Generated_Source\PSoC6/ADC.h ****         ((ADC_CFG0_APERTURE_TIME2 \
 391:Generated_Source\PSoC6/ADC.h ****         << SAR_SAMPLE_TIME23_SAMPLE_TIME2_Pos) \
 392:Generated_Source\PSoC6/ADC.h ****         | (ADC_CFG0_APERTURE_TIME3 \
 393:Generated_Source\PSoC6/ADC.h ****         << SAR_SAMPLE_TIME23_SAMPLE_TIME3_Pos))
 394:Generated_Source\PSoC6/ADC.h **** 
 395:Generated_Source\PSoC6/ADC.h **** /* Enable soc pin if used */
 396:Generated_Source\PSoC6/ADC.h **** #define ADC_CFG0_DSI_TRIGGER_EN_INIT \
 397:Generated_Source\PSoC6/ADC.h ****         (ADC_CFG0_USE_SOC \
 398:Generated_Source\PSoC6/ADC.h ****         << SAR_SAMPLE_CTRL_DSI_TRIGGER_EN_Pos)
 399:Generated_Source\PSoC6/ADC.h **** 
 400:Generated_Source\PSoC6/ADC.h **** /* Set soc operation to edge or level based on sample mode */
 401:Generated_Source\PSoC6/ADC.h **** #if(ADC_CFG0_FREERUNNING == ADC_FREERUNNING)
 402:Generated_Source\PSoC6/ADC.h ****     #define ADC_CFG0_DSI_TRIGGER_LEVEL_INIT    (SAR_SAMPLE_CTRL_DSI_TRIGGER_LEVEL_Msk)
 403:Generated_Source\PSoC6/ADC.h **** #else /* Edge trigger */
 404:Generated_Source\PSoC6/ADC.h ****     #define ADC_CFG0_DSI_TRIGGER_LEVEL_INIT    (0u)
 405:Generated_Source\PSoC6/ADC.h **** #endif /* End ADC_CFG0_FREERUNNING == ADC_FREERUNNING */
 406:Generated_Source\PSoC6/ADC.h **** 
 407:Generated_Source\PSoC6/ADC.h **** /* Set SE_NEG_INPUT */
 408:Generated_Source\PSoC6/ADC.h **** #if(ADC_CFG0_VNEG_INPUT_SEL == ADC_NEG_SEL_VSSA_KELVIN)
 409:Generated_Source\PSoC6/ADC.h ****     #define ADC_CFG0_SE_NEG_INPUT_INIT \
 410:Generated_Source\PSoC6/ADC.h ****             ((uint32)(ADC_NEG_SEL_VSSA_KELVIN \
 411:Generated_Source\PSoC6/ADC.h ****             << SAR_CTRL_NEG_SEL_Pos ))
 412:Generated_Source\PSoC6/ADC.h **** #elif(ADC_CFG0_VNEG_INPUT_SEL == ADC_NEG_SEL_VREF)
 413:Generated_Source\PSoC6/ADC.h **** 
 414:Generated_Source\PSoC6/ADC.h ****     /* Do not connect VNEG to VREF when one channel in differential mode used */
 415:Generated_Source\PSoC6/ADC.h ****     /* Only needed for config 0 since 2+ configs == 2+ channels */
 416:Generated_Source\PSoC6/ADC.h ****     #if((ADC_CFG0_CHANNEL_COUNT == 1u) && (ADC_CFG0_SINGLE_PRESENT == 0u))
 417:Generated_Source\PSoC6/ADC.h ****         #define ADC_CFG0_SE_NEG_INPUT_INIT     0u
 418:Generated_Source\PSoC6/ADC.h ****     #else    /* multiple channels or one single channel */
 419:Generated_Source\PSoC6/ADC.h ****         #define ADC_CFG0_SE_NEG_INPUT_INIT     (ADC_NEG_SEL_VREF \
 420:Generated_Source\PSoC6/ADC.h ****                                                             << SAR_CTRL_NEG_SEL_Pos )
ARM GAS  C:\Users\zinch\AppData\Local\Temp\ccRcQgKK.s 			page 25


 421:Generated_Source\PSoC6/ADC.h ****     #endif /* (ADC_CFG0_CHANNEL_COUNT == 1u) && (ADC_CFG0_CHANNELS_MODE != 0u) */
 422:Generated_Source\PSoC6/ADC.h **** #elif (ADC_CFG0_SINGLE_PRESENT != 0u)
 423:Generated_Source\PSoC6/ADC.h ****     #define ADC_CFG0_SE_NEG_INPUT_INIT         ADC_CFG0_NEG_OTHER
 424:Generated_Source\PSoC6/ADC.h **** #else
 425:Generated_Source\PSoC6/ADC.h ****     #define ADC_CFG0_SE_NEG_INPUT_INIT         0u
 426:Generated_Source\PSoC6/ADC.h **** #endif /* ADC_CFG0_VNEG_INPUT_SEL == ADC_NEG_SEL_VSSA_KELVIN */
 427:Generated_Source\PSoC6/ADC.h **** 
 428:Generated_Source\PSoC6/ADC.h **** #if(ADC_TOTAL_CHANNELS_NUM > 1u)
 429:Generated_Source\PSoC6/ADC.h ****     #define ADC_CFG0_NEG_OTHER                 (uint16)((uint16)ADC_SARMUX__VNEG0 << SAR_CTRL_NEG_S
 430:Generated_Source\PSoC6/ADC.h ****     #define ADC_CFG0_SWITCH_CONF_INIT          0u
 431:Generated_Source\PSoC6/ADC.h **** #else /* Disable SAR sequencer from enabling routing switches in single channel mode */
 432:Generated_Source\PSoC6/ADC.h ****     #define ADC_CFG0_SWITCH_CONF_INIT          SAR_CTRL_SWITCH_DISABLE_Msk
 433:Generated_Source\PSoC6/ADC.h ****     #define ADC_CFG0_NEG_OTHER                 0u
 434:Generated_Source\PSoC6/ADC.h **** #endif /* ADC_CFG0_CHANNEL_COUNT > 1u */
 435:Generated_Source\PSoC6/ADC.h **** 
 436:Generated_Source\PSoC6/ADC.h **** /* If the SAR is configured for multiple channels, always set SAR_HW_CTRL_NEGVREF to 1 */
 437:Generated_Source\PSoC6/ADC.h **** #if(ADC_TOTAL_CHANNELS_NUM == 1u)
 438:Generated_Source\PSoC6/ADC.h ****     #define ADC_CFG0_HW_CTRL_NEGVREF_INIT      0u
 439:Generated_Source\PSoC6/ADC.h **** #else
 440:Generated_Source\PSoC6/ADC.h ****     #define ADC_CFG0_HW_CTRL_NEGVREF_INIT      SAR_CTRL_SAR_HW_CTRL_NEGVREF_Msk
 441:Generated_Source\PSoC6/ADC.h **** #endif /* ADC_CFG0_CHANNEL_COUNT == 1u */
 442:Generated_Source\PSoC6/ADC.h **** 
 443:Generated_Source\PSoC6/ADC.h **** #define ADC_CFG0_POWER_INIT  (ADC_PWR_CTRL_VREF_NORMAL_PWR)
 444:Generated_Source\PSoC6/ADC.h **** 
 445:Generated_Source\PSoC6/ADC.h **** /* SAMPLE_CTRL initial values */
 446:Generated_Source\PSoC6/ADC.h **** #define ADC_CFG0_SE_RESULT_FORMAT_INIT \
 447:Generated_Source\PSoC6/ADC.h ****         (ADC_CFG0_SINGLE_ENDED_FORMAT \
 448:Generated_Source\PSoC6/ADC.h ****         << SAR_SAMPLE_CTRL_SINGLE_ENDED_SIGNED_Pos)
 449:Generated_Source\PSoC6/ADC.h **** 
 450:Generated_Source\PSoC6/ADC.h **** #define ADC_CFG0_DIFF_RESULT_FORMAT_INIT \
 451:Generated_Source\PSoC6/ADC.h ****         (ADC_CFG0_DIFFERENTIAL_FORMAT \
 452:Generated_Source\PSoC6/ADC.h ****         << SAR_SAMPLE_CTRL_DIFFERENTIAL_SIGNED_Pos)
 453:Generated_Source\PSoC6/ADC.h **** 
 454:Generated_Source\PSoC6/ADC.h **** #define ADC_CFG0_AVG_SAMPLES_NUM_INIT \
 455:Generated_Source\PSoC6/ADC.h ****         (ADC_CFG0_SAMPLES_AVERAGED \
 456:Generated_Source\PSoC6/ADC.h ****         << SAR_SAMPLE_CTRL_AVG_CNT_Pos)
 457:Generated_Source\PSoC6/ADC.h **** 
 458:Generated_Source\PSoC6/ADC.h **** /* Combination of Average Mode and Average Shift */
 459:Generated_Source\PSoC6/ADC.h **** #define ADC_CFG0_AVG_MODE_INIT \
 460:Generated_Source\PSoC6/ADC.h ****         (ADC_CFG0_AVGERAGING_MODE \
 461:Generated_Source\PSoC6/ADC.h ****         << SAR_SAMPLE_CTRL_AVG_SHIFT_Pos)
 462:Generated_Source\PSoC6/ADC.h **** 
 463:Generated_Source\PSoC6/ADC.h **** #define ADC_CFG0_TRIGGER_OUT_INIT      (0u)
 464:Generated_Source\PSoC6/ADC.h **** #define ADC_CFG0_UAB_SCAN_MODE_INIT    (0u)
 465:Generated_Source\PSoC6/ADC.h **** 
 466:Generated_Source\PSoC6/ADC.h **** #define ADC_CFG0_VREF_POWER_INIT  \
 467:Generated_Source\PSoC6/ADC.h ****         (ADC_CFG0_VREF_PWR \
 468:Generated_Source\PSoC6/ADC.h ****         << SAR_CTRL_PWR_CTRL_VREF_Pos)
 469:Generated_Source\PSoC6/ADC.h **** 
 470:Generated_Source\PSoC6/ADC.h **** #define ADC_CFG0_COMP_PWR_INIT  \
 471:Generated_Source\PSoC6/ADC.h ****         (ADC_CFG0_COMP_PWR \
 472:Generated_Source\PSoC6/ADC.h ****         << SAR_CTRL_COMP_PWR_Pos)
 473:Generated_Source\PSoC6/ADC.h **** 
 474:Generated_Source\PSoC6/ADC.h **** #define ADC_CFG0_COMP_DLY_INIT  \
 475:Generated_Source\PSoC6/ADC.h ****         (ADC_CFG0_COMP_DLY \
 476:Generated_Source\PSoC6/ADC.h ****         << SAR_CTRL_COMP_DLY_Pos)
 477:Generated_Source\PSoC6/ADC.h **** 
ARM GAS  C:\Users\zinch\AppData\Local\Temp\ccRcQgKK.s 			page 26


 478:Generated_Source\PSoC6/ADC.h **** #define ADC_CFG0_CTRL_INIT  \
 479:Generated_Source\PSoC6/ADC.h ****         (ADC_CFG0_VREF_POWER_INIT \
 480:Generated_Source\PSoC6/ADC.h ****         | ADC_CFG0_VREF_SEL_MASK \
 481:Generated_Source\PSoC6/ADC.h ****         | ADC_CFG0_SE_NEG_INPUT_INIT \
 482:Generated_Source\PSoC6/ADC.h ****         | ADC_CFG0_HW_CTRL_NEGVREF_INIT \
 483:Generated_Source\PSoC6/ADC.h ****         | ADC_CFG0_COMP_DLY_INIT \
 484:Generated_Source\PSoC6/ADC.h ****         | SAR_CTRL_REFBUF_EN_Msk \
 485:Generated_Source\PSoC6/ADC.h ****         | ADC_CFG0_COMP_PWR_INIT \
 486:Generated_Source\PSoC6/ADC.h ****         | SAR_CTRL_DSI_SYNC_CONFIG_Msk  \
 487:Generated_Source\PSoC6/ADC.h ****         | ADC_CFG0_SWITCH_CONF_INIT )
 488:Generated_Source\PSoC6/ADC.h **** 
 489:Generated_Source\PSoC6/ADC.h **** #define ADC_CFG0_SAMPLE_CTRL_INIT \
 490:Generated_Source\PSoC6/ADC.h ****         (ADC_CFG0_SE_RESULT_FORMAT_INIT \
 491:Generated_Source\PSoC6/ADC.h ****         | ADC_CFG0_DIFF_RESULT_FORMAT_INIT \
 492:Generated_Source\PSoC6/ADC.h ****         | ADC_CFG0_AVG_SAMPLES_NUM_INIT \
 493:Generated_Source\PSoC6/ADC.h ****         | ADC_CFG0_AVG_MODE_INIT \
 494:Generated_Source\PSoC6/ADC.h ****         | ADC_CFG0_DSI_TRIGGER_LEVEL_INIT \
 495:Generated_Source\PSoC6/ADC.h ****         | ADC_CFG0_DSI_TRIGGER_EN_INIT \
 496:Generated_Source\PSoC6/ADC.h ****         | ADC_CFG0_UAB_SCAN_MODE_INIT \
 497:Generated_Source\PSoC6/ADC.h ****         | SAR_SAMPLE_CTRL_VALID_IGNORE_Msk \
 498:Generated_Source\PSoC6/ADC.h ****         | ADC_CFG0_TRIGGER_OUT_INIT \
 499:Generated_Source\PSoC6/ADC.h ****         | SAR_SAMPLE_CTRL_EOS_DSI_OUT_EN_Msk \
 500:Generated_Source\PSoC6/ADC.h **** )
 501:Generated_Source\PSoC6/ADC.h **** 
 502:Generated_Source\PSoC6/ADC.h **** #define ADC_CFG0_RANGE_THRES_INIT \
 503:Generated_Source\PSoC6/ADC.h ****         (ADC_CFG0_LOW_LIMIT \
 504:Generated_Source\PSoC6/ADC.h ****         | (uint32)((uint32)ADC_CFG0_HIGH_LIMIT \
 505:Generated_Source\PSoC6/ADC.h ****         << SAR_RANGE_THRES_RANGE_HIGH_Pos))
 506:Generated_Source\PSoC6/ADC.h **** 
 507:Generated_Source\PSoC6/ADC.h **** #define ADC_CFG0_RANGE_COND_INIT   (cy_en_sar_range_detect_condition_t)ADC_CFG0_RANGE_COND
 508:Generated_Source\PSoC6/ADC.h **** 
 509:Generated_Source\PSoC6/ADC.h **** /* Misc Config
 510:Generated_Source\PSoC6/ADC.h ****     [0] - Freerunning: Set if the sample mode is freerunning
 511:Generated_Source\PSoC6/ADC.h **** */
 512:Generated_Source\PSoC6/ADC.h **** #define ADC_CFG0_MISC_CONFIG_INIT \
 513:Generated_Source\PSoC6/ADC.h ****         (ADC_CFG0_FREERUNNING)
 514:Generated_Source\PSoC6/ADC.h **** 
 515:Generated_Source\PSoC6/ADC.h **** /* ************************************************************************** */
 516:Generated_Source\PSoC6/ADC.h **** /* End configuration 0 calculated defines                                     */
 517:Generated_Source\PSoC6/ADC.h **** /* ************************************************************************** */
 518:Generated_Source\PSoC6/ADC.h **** 
 519:Generated_Source\PSoC6/ADC.h **** /* ************************************************************************** */
 520:Generated_Source\PSoC6/ADC.h **** /* Begin configuration 1 calculated defines                                   */
 521:Generated_Source\PSoC6/ADC.h **** /* ************************************************************************** */
 522:Generated_Source\PSoC6/ADC.h **** #if(ADC_TOTAL_CONFIGS > 1)
 523:Generated_Source\PSoC6/ADC.h ****     #define ADC_CFG1_SAMPLE_TIME01_INIT \
 524:Generated_Source\PSoC6/ADC.h ****             ((ADC_CFG1_APERTURE_TIME0 \
 525:Generated_Source\PSoC6/ADC.h ****             << SAR_SAMPLE_TIME01_SAMPLE_TIME0_Pos) \
 526:Generated_Source\PSoC6/ADC.h ****             | (ADC_CFG1_APERTURE_TIME1 \
 527:Generated_Source\PSoC6/ADC.h ****             << SAR_SAMPLE_TIME01_SAMPLE_TIME1_Pos))
 528:Generated_Source\PSoC6/ADC.h **** 
 529:Generated_Source\PSoC6/ADC.h ****     #define ADC_CFG1_SAMPLE_TIME23_INIT \
 530:Generated_Source\PSoC6/ADC.h ****             ((ADC_CFG1_APERTURE_TIME2 \
 531:Generated_Source\PSoC6/ADC.h ****             << SAR_SAMPLE_TIME23_SAMPLE_TIME2_Pos) \
 532:Generated_Source\PSoC6/ADC.h ****             | (ADC_CFG1_APERTURE_TIME3 \
 533:Generated_Source\PSoC6/ADC.h ****             << SAR_SAMPLE_TIME23_SAMPLE_TIME3_Pos))
 534:Generated_Source\PSoC6/ADC.h **** 
ARM GAS  C:\Users\zinch\AppData\Local\Temp\ccRcQgKK.s 			page 27


 535:Generated_Source\PSoC6/ADC.h ****     /* Enable soc pin if used */
 536:Generated_Source\PSoC6/ADC.h ****     #define ADC_CFG1_DSI_TRIGGER_EN_INIT \
 537:Generated_Source\PSoC6/ADC.h ****             (ADC_CFG1_USE_SOC \
 538:Generated_Source\PSoC6/ADC.h ****             << SAR_SAMPLE_CTRL_DSI_TRIGGER_EN_Pos)
 539:Generated_Source\PSoC6/ADC.h **** 
 540:Generated_Source\PSoC6/ADC.h ****     /* Set soc operation to edge or level based on sample mode */
 541:Generated_Source\PSoC6/ADC.h ****     #if(ADC_CFG1_FREERUNNING == ADC_FREERUNNING)
 542:Generated_Source\PSoC6/ADC.h ****         #define ADC_CFG1_DSI_TRIGGER_LEVEL_INIT    (SAR_SAMPLE_CTRL_DSI_TRIGGER_LEVEL_Msk)
 543:Generated_Source\PSoC6/ADC.h ****     #else /* Edge trigger */
 544:Generated_Source\PSoC6/ADC.h ****         #define ADC_CFG1_DSI_TRIGGER_LEVEL_INIT    (0u)
 545:Generated_Source\PSoC6/ADC.h ****     #endif /* End ADC_CFG1_FREERUNNING == ADC_FREERUNNING */
 546:Generated_Source\PSoC6/ADC.h **** 
 547:Generated_Source\PSoC6/ADC.h ****     /* Set SE_NEG_INPUT */
 548:Generated_Source\PSoC6/ADC.h ****     #if(ADC_CFG1_VNEG_INPUT_SEL == ADC_NEG_SEL_VSSA_KELVIN)
 549:Generated_Source\PSoC6/ADC.h ****         #define ADC_CFG1_SE_NEG_INPUT_INIT \
 550:Generated_Source\PSoC6/ADC.h ****             ((uint32)(ADC_NEG_SEL_VSSA_KELVIN \
 551:Generated_Source\PSoC6/ADC.h ****             << SAR_CTRL_NEG_SEL_Pos ))
 552:Generated_Source\PSoC6/ADC.h ****     #elif(ADC_CFG1_VNEG_INPUT_SEL == ADC_NEG_SEL_VREF)
 553:Generated_Source\PSoC6/ADC.h ****         #define ADC_CFG1_SE_NEG_INPUT_INIT     (ADC_NEG_SEL_VREF \
 554:Generated_Source\PSoC6/ADC.h ****                                                             << SAR_CTRL_NEG_SEL_Pos )
 555:Generated_Source\PSoC6/ADC.h ****     #elif (ADC_CFG1_SINGLE_PRESENT != 0u)
 556:Generated_Source\PSoC6/ADC.h ****         #define ADC_CFG1_SE_NEG_INPUT_INIT         ADC_CFG1_NEG_OTHER
 557:Generated_Source\PSoC6/ADC.h ****     #else
 558:Generated_Source\PSoC6/ADC.h ****         #define ADC_CFG1_SE_NEG_INPUT_INIT         0u
 559:Generated_Source\PSoC6/ADC.h ****     #endif /* ADC_CFG1_VNEG_INPUT_SEL == ADC_NEG_SEL_VSSA_KELVIN */
 560:Generated_Source\PSoC6/ADC.h **** 
 561:Generated_Source\PSoC6/ADC.h ****     #define ADC_CFG1_NEG_OTHER                 (uint16)((uint16)ADC_SARMUX__VNEG1 << SAR_CTRL_NEG_S
 562:Generated_Source\PSoC6/ADC.h ****     #define ADC_CFG1_SWITCH_CONF_INIT          0u
 563:Generated_Source\PSoC6/ADC.h **** 
 564:Generated_Source\PSoC6/ADC.h ****     /* If the SAR is configured for multiple channels, always set SAR_HW_CTRL_NEGVREF to 1 */
 565:Generated_Source\PSoC6/ADC.h ****     #define ADC_CFG1_HW_CTRL_NEGVREF_INIT      SAR_CTRL_SAR_HW_CTRL_NEGVREF_Msk
 566:Generated_Source\PSoC6/ADC.h **** 
 567:Generated_Source\PSoC6/ADC.h ****     #define ADC_CFG1_POWER_INIT  (ADC_PWR_CTRL_VREF_NORMAL_PWR)
 568:Generated_Source\PSoC6/ADC.h **** 
 569:Generated_Source\PSoC6/ADC.h ****     /* SAMPLE_CTRL initial values */
 570:Generated_Source\PSoC6/ADC.h ****     #define ADC_CFG1_SE_RESULT_FORMAT_INIT \
 571:Generated_Source\PSoC6/ADC.h ****             (ADC_CFG1_SINGLE_ENDED_FORMAT \
 572:Generated_Source\PSoC6/ADC.h ****             << SAR_SAMPLE_CTRL_SINGLE_ENDED_SIGNED_Pos)
 573:Generated_Source\PSoC6/ADC.h **** 
 574:Generated_Source\PSoC6/ADC.h ****     #define ADC_CFG1_DIFF_RESULT_FORMAT_INIT \
 575:Generated_Source\PSoC6/ADC.h ****             (ADC_CFG1_DIFFERENTIAL_FORMAT \
 576:Generated_Source\PSoC6/ADC.h ****             << SAR_SAMPLE_CTRL_DIFFERENTIAL_SIGNED_Pos)
 577:Generated_Source\PSoC6/ADC.h **** 
 578:Generated_Source\PSoC6/ADC.h ****     #define ADC_CFG1_AVG_SAMPLES_NUM_INIT \
 579:Generated_Source\PSoC6/ADC.h ****             (ADC_CFG1_SAMPLES_AVERAGED \
 580:Generated_Source\PSoC6/ADC.h ****             << SAR_SAMPLE_CTRL_AVG_CNT_Pos)
 581:Generated_Source\PSoC6/ADC.h **** 
 582:Generated_Source\PSoC6/ADC.h ****     /* Combination of Average Mode and Average Shift */
 583:Generated_Source\PSoC6/ADC.h ****     #define ADC_CFG1_AVG_MODE_INIT \
 584:Generated_Source\PSoC6/ADC.h ****             (ADC_CFG1_AVGERAGING_MODE \
 585:Generated_Source\PSoC6/ADC.h ****             << SAR_SAMPLE_CTRL_AVG_SHIFT_Pos)
 586:Generated_Source\PSoC6/ADC.h **** 
 587:Generated_Source\PSoC6/ADC.h ****     #define ADC_CFG1_TRIGGER_OUT_INIT      (0u)
 588:Generated_Source\PSoC6/ADC.h ****     #define ADC_CFG1_UAB_SCAN_MODE_INIT    (0u)
 589:Generated_Source\PSoC6/ADC.h **** 
 590:Generated_Source\PSoC6/ADC.h ****     #define ADC_CFG1_VREF_POWER_INIT  \
 591:Generated_Source\PSoC6/ADC.h ****             (ADC_CFG1_VREF_PWR \
ARM GAS  C:\Users\zinch\AppData\Local\Temp\ccRcQgKK.s 			page 28


 592:Generated_Source\PSoC6/ADC.h ****             << SAR_CTRL_PWR_CTRL_VREF_Pos)
 593:Generated_Source\PSoC6/ADC.h **** 
 594:Generated_Source\PSoC6/ADC.h ****     #define ADC_CFG1_COMP_PWR_INIT  \
 595:Generated_Source\PSoC6/ADC.h ****             (ADC_CFG1_COMP_PWR \
 596:Generated_Source\PSoC6/ADC.h ****             << SAR_CTRL_COMP_PWR_Pos)
 597:Generated_Source\PSoC6/ADC.h **** 
 598:Generated_Source\PSoC6/ADC.h ****     #define ADC_CFG1_COMP_DLY_INIT  \
 599:Generated_Source\PSoC6/ADC.h ****             (ADC_CFG1_COMP_DLY \
 600:Generated_Source\PSoC6/ADC.h ****             << SAR_CTRL_COMP_DLY_Pos)
 601:Generated_Source\PSoC6/ADC.h **** 
 602:Generated_Source\PSoC6/ADC.h ****     #define ADC_CFG1_CTRL_INIT  \
 603:Generated_Source\PSoC6/ADC.h ****             (ADC_CFG1_VREF_POWER_INIT \
 604:Generated_Source\PSoC6/ADC.h ****             | ADC_CFG1_VREF_SEL_MASK \
 605:Generated_Source\PSoC6/ADC.h ****             | ADC_CFG1_SE_NEG_INPUT_INIT \
 606:Generated_Source\PSoC6/ADC.h ****             | ADC_CFG1_HW_CTRL_NEGVREF_INIT \
 607:Generated_Source\PSoC6/ADC.h ****             | ADC_CFG1_COMP_DLY_INIT \
 608:Generated_Source\PSoC6/ADC.h ****             | SAR_CTRL_REFBUF_EN_Msk \
 609:Generated_Source\PSoC6/ADC.h ****             | ADC_CFG1_COMP_PWR_INIT \
 610:Generated_Source\PSoC6/ADC.h ****             | SAR_CTRL_DSI_SYNC_CONFIG_Msk  \
 611:Generated_Source\PSoC6/ADC.h ****             | ADC_CFG1_SWITCH_CONF_INIT )
 612:Generated_Source\PSoC6/ADC.h **** 
 613:Generated_Source\PSoC6/ADC.h ****     #define ADC_CFG1_SAMPLE_CTRL_INIT \
 614:Generated_Source\PSoC6/ADC.h ****             (ADC_CFG1_SE_RESULT_FORMAT_INIT \
 615:Generated_Source\PSoC6/ADC.h ****             | ADC_CFG1_DIFF_RESULT_FORMAT_INIT \
 616:Generated_Source\PSoC6/ADC.h ****             | ADC_CFG1_AVG_SAMPLES_NUM_INIT \
 617:Generated_Source\PSoC6/ADC.h ****             | ADC_CFG1_AVG_MODE_INIT \
 618:Generated_Source\PSoC6/ADC.h ****             | ADC_CFG1_DSI_TRIGGER_LEVEL_INIT \
 619:Generated_Source\PSoC6/ADC.h ****             | ADC_CFG1_DSI_TRIGGER_EN_INIT \
 620:Generated_Source\PSoC6/ADC.h ****             | ADC_CFG1_UAB_SCAN_MODE_INIT \
 621:Generated_Source\PSoC6/ADC.h ****             | SAR_SAMPLE_CTRL_VALID_IGNORE_Msk \
 622:Generated_Source\PSoC6/ADC.h ****             | ADC_CFG1_TRIGGER_OUT_INIT \
 623:Generated_Source\PSoC6/ADC.h ****             | SAR_SAMPLE_CTRL_EOS_DSI_OUT_EN_Msk \
 624:Generated_Source\PSoC6/ADC.h ****     )
 625:Generated_Source\PSoC6/ADC.h **** 
 626:Generated_Source\PSoC6/ADC.h ****     #define ADC_CFG1_RANGE_THRES_INIT \
 627:Generated_Source\PSoC6/ADC.h ****             (ADC_CFG1_LOW_LIMIT \
 628:Generated_Source\PSoC6/ADC.h ****             | (uint32)((uint32)ADC_CFG1_HIGH_LIMIT \
 629:Generated_Source\PSoC6/ADC.h ****             << SAR_RANGE_THRES_RANGE_HIGH_Pos))
 630:Generated_Source\PSoC6/ADC.h **** 
 631:Generated_Source\PSoC6/ADC.h ****     #define ADC_CFG1_RANGE_COND_INIT   (cy_en_sar_range_detect_condition_t)ADC_CFG1_RANGE_COND
 632:Generated_Source\PSoC6/ADC.h **** 
 633:Generated_Source\PSoC6/ADC.h ****     /* Misc Config
 634:Generated_Source\PSoC6/ADC.h ****         [0] - Freerunning: Set if the sample mode is freerunning
 635:Generated_Source\PSoC6/ADC.h ****     */
 636:Generated_Source\PSoC6/ADC.h ****     #define ADC_CFG1_MISC_CONFIG_INIT \
 637:Generated_Source\PSoC6/ADC.h ****             (ADC_CFG1_FREERUNNING)
 638:Generated_Source\PSoC6/ADC.h **** #endif /* ADC_TOTAL_CONFIGS > 1 */
 639:Generated_Source\PSoC6/ADC.h **** 
 640:Generated_Source\PSoC6/ADC.h **** /* ************************************************************************** */
 641:Generated_Source\PSoC6/ADC.h **** /* End configuration 1 calculated defines                                     */
 642:Generated_Source\PSoC6/ADC.h **** /* ************************************************************************** */
 643:Generated_Source\PSoC6/ADC.h **** 
 644:Generated_Source\PSoC6/ADC.h **** /* ************************************************************************** */
 645:Generated_Source\PSoC6/ADC.h **** /* Begin configuration 2 calculated defines                                   */
 646:Generated_Source\PSoC6/ADC.h **** /* ************************************************************************** */
 647:Generated_Source\PSoC6/ADC.h **** #if(ADC_TOTAL_CONFIGS > 2)
 648:Generated_Source\PSoC6/ADC.h ****     #define ADC_CFG2_SAMPLE_TIME01_INIT \
ARM GAS  C:\Users\zinch\AppData\Local\Temp\ccRcQgKK.s 			page 29


 649:Generated_Source\PSoC6/ADC.h ****             ((ADC_CFG2_APERTURE_TIME0 \
 650:Generated_Source\PSoC6/ADC.h ****             << SAR_SAMPLE_TIME01_SAMPLE_TIME0_Pos) \
 651:Generated_Source\PSoC6/ADC.h ****             | (ADC_CFG2_APERTURE_TIME1 \
 652:Generated_Source\PSoC6/ADC.h ****             << SAR_SAMPLE_TIME01_SAMPLE_TIME1_Pos))
 653:Generated_Source\PSoC6/ADC.h **** 
 654:Generated_Source\PSoC6/ADC.h ****     #define ADC_CFG2_SAMPLE_TIME23_INIT \
 655:Generated_Source\PSoC6/ADC.h ****             ((ADC_CFG2_APERTURE_TIME2 \
 656:Generated_Source\PSoC6/ADC.h ****             << SAR_SAMPLE_TIME23_SAMPLE_TIME2_Pos) \
 657:Generated_Source\PSoC6/ADC.h ****             | (ADC_CFG2_APERTURE_TIME3 \
 658:Generated_Source\PSoC6/ADC.h ****             << SAR_SAMPLE_TIME23_SAMPLE_TIME3_Pos))
 659:Generated_Source\PSoC6/ADC.h **** 
 660:Generated_Source\PSoC6/ADC.h ****     /* Enable soc pin if used */
 661:Generated_Source\PSoC6/ADC.h ****     #define ADC_CFG2_DSI_TRIGGER_EN_INIT \
 662:Generated_Source\PSoC6/ADC.h ****             (ADC_CFG2_USE_SOC \
 663:Generated_Source\PSoC6/ADC.h ****             << SAR_SAMPLE_CTRL_DSI_TRIGGER_EN_Pos)
 664:Generated_Source\PSoC6/ADC.h **** 
 665:Generated_Source\PSoC6/ADC.h ****     /* Set soc operation to edge or level based on sample mode */
 666:Generated_Source\PSoC6/ADC.h ****     #if(ADC_CFG2_FREERUNNING == ADC_FREERUNNING)
 667:Generated_Source\PSoC6/ADC.h ****         #define ADC_CFG2_DSI_TRIGGER_LEVEL_INIT    (SAR_SAMPLE_CTRL_DSI_TRIGGER_LEVEL_Msk)
 668:Generated_Source\PSoC6/ADC.h ****     #else /* Edge trigger */
 669:Generated_Source\PSoC6/ADC.h ****         #define ADC_CFG2_DSI_TRIGGER_LEVEL_INIT    (0u)
 670:Generated_Source\PSoC6/ADC.h ****     #endif /* End ADC_CFG2_FREERUNNING == ADC_FREERUNNING */
 671:Generated_Source\PSoC6/ADC.h **** 
 672:Generated_Source\PSoC6/ADC.h ****     /* Set SE_NEG_INPUT */
 673:Generated_Source\PSoC6/ADC.h ****     #if(ADC_CFG2_VNEG_INPUT_SEL == ADC_NEG_SEL_VSSA_KELVIN)
 674:Generated_Source\PSoC6/ADC.h ****         #define ADC_CFG2_SE_NEG_INPUT_INIT \
 675:Generated_Source\PSoC6/ADC.h ****             ((uint32)(ADC_NEG_SEL_VSSA_KELVIN \
 676:Generated_Source\PSoC6/ADC.h ****             << SAR_CTRL_NEG_SEL_Pos ))
 677:Generated_Source\PSoC6/ADC.h ****     #elif(ADC_CFG2_VNEG_INPUT_SEL == ADC_NEG_SEL_VREF)
 678:Generated_Source\PSoC6/ADC.h ****         #define ADC_CFG2_SE_NEG_INPUT_INIT     (ADC_NEG_SEL_VREF \
 679:Generated_Source\PSoC6/ADC.h ****                                                                 << SAR_CTRL_NEG_SEL_Pos )
 680:Generated_Source\PSoC6/ADC.h ****     #elif (ADC_CFG2_SINGLE_PRESENT != 0u)
 681:Generated_Source\PSoC6/ADC.h ****         #define ADC_CFG2_SE_NEG_INPUT_INIT         ADC_CFG2_NEG_OTHER
 682:Generated_Source\PSoC6/ADC.h ****     #else
 683:Generated_Source\PSoC6/ADC.h ****         #define ADC_CFG2_SE_NEG_INPUT_INIT         0u
 684:Generated_Source\PSoC6/ADC.h ****     #endif /* ADC_CFG2_VNEG_INPUT_SEL == ADC_NEG_SEL_VSSA_KELVIN */
 685:Generated_Source\PSoC6/ADC.h **** 
 686:Generated_Source\PSoC6/ADC.h ****    #define ADC_CFG2_NEG_OTHER                 (uint16)((uint16)ADC_SARMUX__VNEG2 << SAR_CTRL_NEG_SE
 687:Generated_Source\PSoC6/ADC.h **** 
 688:Generated_Source\PSoC6/ADC.h ****     #define ADC_CFG2_SWITCH_CONF_INIT          0u
 689:Generated_Source\PSoC6/ADC.h **** 
 690:Generated_Source\PSoC6/ADC.h ****     /* If the SAR is configured for multiple channels, always set SAR_HW_CTRL_NEGVREF to 1 */
 691:Generated_Source\PSoC6/ADC.h ****     #define ADC_CFG2_HW_CTRL_NEGVREF_INIT      SAR_CTRL_SAR_HW_CTRL_NEGVREF_Msk
 692:Generated_Source\PSoC6/ADC.h **** 
 693:Generated_Source\PSoC6/ADC.h ****     #define ADC_CFG2_POWER_INIT  (ADC_PWR_CTRL_VREF_NORMAL_PWR)
 694:Generated_Source\PSoC6/ADC.h **** 
 695:Generated_Source\PSoC6/ADC.h ****     /* SAMPLE_CTRL initial values */
 696:Generated_Source\PSoC6/ADC.h ****     #define ADC_CFG2_SE_RESULT_FORMAT_INIT \
 697:Generated_Source\PSoC6/ADC.h ****             (ADC_CFG2_SINGLE_ENDED_FORMAT \
 698:Generated_Source\PSoC6/ADC.h ****             << SAR_SAMPLE_CTRL_SINGLE_ENDED_SIGNED_Pos)
 699:Generated_Source\PSoC6/ADC.h **** 
 700:Generated_Source\PSoC6/ADC.h ****     #define ADC_CFG2_DIFF_RESULT_FORMAT_INIT \
 701:Generated_Source\PSoC6/ADC.h ****             (ADC_CFG2_DIFFERENTIAL_FORMAT \
 702:Generated_Source\PSoC6/ADC.h ****             << SAR_SAMPLE_CTRL_DIFFERENTIAL_SIGNED_Pos)
 703:Generated_Source\PSoC6/ADC.h **** 
 704:Generated_Source\PSoC6/ADC.h ****     #define ADC_CFG2_AVG_SAMPLES_NUM_INIT \
 705:Generated_Source\PSoC6/ADC.h ****             (ADC_CFG2_SAMPLES_AVERAGED \
ARM GAS  C:\Users\zinch\AppData\Local\Temp\ccRcQgKK.s 			page 30


 706:Generated_Source\PSoC6/ADC.h ****             << SAR_SAMPLE_CTRL_AVG_CNT_Pos)
 707:Generated_Source\PSoC6/ADC.h **** 
 708:Generated_Source\PSoC6/ADC.h ****     /* Combination of Average Mode and Average Shift */
 709:Generated_Source\PSoC6/ADC.h ****     #define ADC_CFG2_AVG_MODE_INIT \
 710:Generated_Source\PSoC6/ADC.h ****             (ADC_CFG2_AVGERAGING_MODE \
 711:Generated_Source\PSoC6/ADC.h ****             << SAR_SAMPLE_CTRL_AVG_SHIFT_Pos)
 712:Generated_Source\PSoC6/ADC.h **** 
 713:Generated_Source\PSoC6/ADC.h ****     #define ADC_CFG2_TRIGGER_OUT_INIT      (0u)
 714:Generated_Source\PSoC6/ADC.h ****     #define ADC_CFG2_UAB_SCAN_MODE_INIT    (0u)
 715:Generated_Source\PSoC6/ADC.h **** 
 716:Generated_Source\PSoC6/ADC.h **** 
 717:Generated_Source\PSoC6/ADC.h ****     #define ADC_CFG2_VREF_POWER_INIT  \
 718:Generated_Source\PSoC6/ADC.h ****             (ADC_CFG2_VREF_PWR \
 719:Generated_Source\PSoC6/ADC.h ****             << SAR_CTRL_PWR_CTRL_VREF_Pos)
 720:Generated_Source\PSoC6/ADC.h **** 
 721:Generated_Source\PSoC6/ADC.h ****     #define ADC_CFG2_COMP_PWR_INIT  \
 722:Generated_Source\PSoC6/ADC.h ****             (ADC_CFG2_COMP_PWR \
 723:Generated_Source\PSoC6/ADC.h ****             << SAR_CTRL_COMP_PWR_Pos)
 724:Generated_Source\PSoC6/ADC.h **** 
 725:Generated_Source\PSoC6/ADC.h ****     #define ADC_CFG2_COMP_DLY_INIT  \
 726:Generated_Source\PSoC6/ADC.h ****             (ADC_CFG2_COMP_DLY \
 727:Generated_Source\PSoC6/ADC.h ****             << SAR_CTRL_COMP_DLY_Pos)
 728:Generated_Source\PSoC6/ADC.h **** 
 729:Generated_Source\PSoC6/ADC.h ****     #define ADC_CFG2_CTRL_INIT  \
 730:Generated_Source\PSoC6/ADC.h ****             (ADC_CFG2_VREF_POWER_INIT \
 731:Generated_Source\PSoC6/ADC.h ****             | ADC_CFG2_VREF_SEL_MASK \
 732:Generated_Source\PSoC6/ADC.h ****             | ADC_CFG2_SE_NEG_INPUT_INIT \
 733:Generated_Source\PSoC6/ADC.h ****             | ADC_CFG2_HW_CTRL_NEGVREF_INIT \
 734:Generated_Source\PSoC6/ADC.h ****             | ADC_CFG2_COMP_DLY_INIT \
 735:Generated_Source\PSoC6/ADC.h ****             | SAR_CTRL_REFBUF_EN_Msk \
 736:Generated_Source\PSoC6/ADC.h ****             | ADC_CFG2_COMP_PWR_INIT \
 737:Generated_Source\PSoC6/ADC.h ****             | SAR_CTRL_DSI_SYNC_CONFIG_Msk  \
 738:Generated_Source\PSoC6/ADC.h ****             | ADC_CFG2_SWITCH_CONF_INIT )
 739:Generated_Source\PSoC6/ADC.h **** 
 740:Generated_Source\PSoC6/ADC.h **** 
 741:Generated_Source\PSoC6/ADC.h ****     #define ADC_CFG2_SAMPLE_CTRL_INIT \
 742:Generated_Source\PSoC6/ADC.h ****             (ADC_CFG2_SE_RESULT_FORMAT_INIT \
 743:Generated_Source\PSoC6/ADC.h ****             | ADC_CFG2_DIFF_RESULT_FORMAT_INIT \
 744:Generated_Source\PSoC6/ADC.h ****             | ADC_CFG2_AVG_SAMPLES_NUM_INIT \
 745:Generated_Source\PSoC6/ADC.h ****             | ADC_CFG2_AVG_MODE_INIT \
 746:Generated_Source\PSoC6/ADC.h ****             | ADC_CFG2_DSI_TRIGGER_LEVEL_INIT \
 747:Generated_Source\PSoC6/ADC.h ****             | ADC_CFG2_DSI_TRIGGER_EN_INIT \
 748:Generated_Source\PSoC6/ADC.h ****             | ADC_CFG2_UAB_SCAN_MODE_INIT \
 749:Generated_Source\PSoC6/ADC.h ****             | SAR_SAMPLE_CTRL_VALID_IGNORE_Msk \
 750:Generated_Source\PSoC6/ADC.h ****             | ADC_CFG2_TRIGGER_OUT_INIT \
 751:Generated_Source\PSoC6/ADC.h ****             | SAR_SAMPLE_CTRL_EOS_DSI_OUT_EN_Msk \
 752:Generated_Source\PSoC6/ADC.h ****     )
 753:Generated_Source\PSoC6/ADC.h **** 
 754:Generated_Source\PSoC6/ADC.h ****     #define ADC_CFG2_RANGE_THRES_INIT \
 755:Generated_Source\PSoC6/ADC.h ****             (ADC_CFG2_LOW_LIMIT \
 756:Generated_Source\PSoC6/ADC.h ****             | (uint32)((uint32)ADC_CFG2_HIGH_LIMIT \
 757:Generated_Source\PSoC6/ADC.h ****             << SAR_RANGE_THRES_RANGE_HIGH_Pos))
 758:Generated_Source\PSoC6/ADC.h **** 
 759:Generated_Source\PSoC6/ADC.h ****     #define ADC_CFG2_RANGE_COND_INIT   (cy_en_sar_range_detect_condition_t)ADC_CFG2_RANGE_COND
 760:Generated_Source\PSoC6/ADC.h **** 
 761:Generated_Source\PSoC6/ADC.h ****     /* Misc Config
 762:Generated_Source\PSoC6/ADC.h ****         [0] - Freerunning: Set if the sample mode is freerunning
ARM GAS  C:\Users\zinch\AppData\Local\Temp\ccRcQgKK.s 			page 31


 763:Generated_Source\PSoC6/ADC.h ****     */
 764:Generated_Source\PSoC6/ADC.h ****     #define ADC_CFG2_MISC_CONFIG_INIT \
 765:Generated_Source\PSoC6/ADC.h ****             (ADC_CFG2_FREERUNNING)
 766:Generated_Source\PSoC6/ADC.h **** #endif /* ADC_TOTAL_CONFIGS > 2 */
 767:Generated_Source\PSoC6/ADC.h **** 
 768:Generated_Source\PSoC6/ADC.h **** /* ************************************************************************** */
 769:Generated_Source\PSoC6/ADC.h **** /* End configuration 2 calculated defines                                     */
 770:Generated_Source\PSoC6/ADC.h **** /* ************************************************************************** */
 771:Generated_Source\PSoC6/ADC.h **** 
 772:Generated_Source\PSoC6/ADC.h **** /* ************************************************************************** */
 773:Generated_Source\PSoC6/ADC.h **** /* Begin configuration 3 calculated defines                                   */
 774:Generated_Source\PSoC6/ADC.h **** /* ************************************************************************** */
 775:Generated_Source\PSoC6/ADC.h **** #if(ADC_TOTAL_CONFIGS > 3)
 776:Generated_Source\PSoC6/ADC.h ****     #define ADC_CFG3_SAMPLE_TIME01_INIT \
 777:Generated_Source\PSoC6/ADC.h ****             ((ADC_CFG3_APERTURE_TIME0 \
 778:Generated_Source\PSoC6/ADC.h ****             << SAR_SAMPLE_TIME01_SAMPLE_TIME0_Pos) \
 779:Generated_Source\PSoC6/ADC.h ****             | (ADC_CFG3_APERTURE_TIME1 \
 780:Generated_Source\PSoC6/ADC.h ****             << SAR_SAMPLE_TIME01_SAMPLE_TIME1_Pos))
 781:Generated_Source\PSoC6/ADC.h **** 
 782:Generated_Source\PSoC6/ADC.h ****     #define ADC_CFG3_SAMPLE_TIME23_INIT \
 783:Generated_Source\PSoC6/ADC.h ****             ((ADC_CFG3_APERTURE_TIME2 \
 784:Generated_Source\PSoC6/ADC.h ****             << SAR_SAMPLE_TIME23_SAMPLE_TIME2_Pos) \
 785:Generated_Source\PSoC6/ADC.h ****             | (ADC_CFG3_APERTURE_TIME3 \
 786:Generated_Source\PSoC6/ADC.h ****             << SAR_SAMPLE_TIME23_SAMPLE_TIME3_Pos))
 787:Generated_Source\PSoC6/ADC.h **** 
 788:Generated_Source\PSoC6/ADC.h ****     /* Enable soc pin if used */
 789:Generated_Source\PSoC6/ADC.h ****     #define ADC_CFG3_DSI_TRIGGER_EN_INIT \
 790:Generated_Source\PSoC6/ADC.h ****             (ADC_CFG3_USE_SOC \
 791:Generated_Source\PSoC6/ADC.h ****              << SAR_SAMPLE_CTRL_DSI_TRIGGER_EN_Pos)
 792:Generated_Source\PSoC6/ADC.h **** 
 793:Generated_Source\PSoC6/ADC.h ****     /* Set soc operation to edge or level based on sample mode */
 794:Generated_Source\PSoC6/ADC.h ****     #if(ADC_CFG3_FREERUNNING == ADC_FREERUNNING)
 795:Generated_Source\PSoC6/ADC.h ****         #define ADC_CFG3_DSI_TRIGGER_LEVEL_INIT    (SAR_SAMPLE_CTRL_DSI_TRIGGER_LEVEL_Msk)
 796:Generated_Source\PSoC6/ADC.h ****     #else /* Edge trigger */
 797:Generated_Source\PSoC6/ADC.h ****         #define ADC_CFG3_DSI_TRIGGER_LEVEL_INIT    (0u)
 798:Generated_Source\PSoC6/ADC.h ****     #endif /* End ADC_CFG3_FREERUNNING == ADC_FREERUNNING */
 799:Generated_Source\PSoC6/ADC.h **** 
 800:Generated_Source\PSoC6/ADC.h ****     /* Set SE_NEG_INPUT  */
 801:Generated_Source\PSoC6/ADC.h ****     #if(ADC_CFG3_VNEG_INPUT_SEL == ADC_NEG_SEL_VSSA_KELVIN)
 802:Generated_Source\PSoC6/ADC.h ****         #define ADC_CFG3_SE_NEG_INPUT_INIT \
 803:Generated_Source\PSoC6/ADC.h ****             ((uint32)(ADC_NEG_SEL_VSSA_KELVIN \
 804:Generated_Source\PSoC6/ADC.h ****             << SAR_CTRL_NEG_SEL_Pos ))
 805:Generated_Source\PSoC6/ADC.h ****     #elif(ADC_CFG3_VNEG_INPUT_SEL == ADC_NEG_SEL_VREF)
 806:Generated_Source\PSoC6/ADC.h ****         #define ADC_CFG3_SE_NEG_INPUT_INIT     (ADC_NEG_SEL_VREF \
 807:Generated_Source\PSoC6/ADC.h ****                                                                 << SAR_CTRL_NEG_SEL_Pos )
 808:Generated_Source\PSoC6/ADC.h ****     #elif (ADC_CFG3_SINGLE_PRESENT != 0u)
 809:Generated_Source\PSoC6/ADC.h ****         #define ADC_CFG3_SE_NEG_INPUT_INIT         ADC_CFG3_NEG_OTHER
 810:Generated_Source\PSoC6/ADC.h ****     #else
 811:Generated_Source\PSoC6/ADC.h ****         #define ADC_CFG3_SE_NEG_INPUT_INIT         0u
 812:Generated_Source\PSoC6/ADC.h ****     #endif /* ADC_CFG3_VNEG_INPUT_SEL == ADC_NEG_SEL_VSSA_KELVIN */
 813:Generated_Source\PSoC6/ADC.h **** 
 814:Generated_Source\PSoC6/ADC.h ****     #define ADC_CFG3_NEG_OTHER                 (uint16)((uint16)ADC_SARMUX__VNEG3 << SAR_CTRL_NEG_S
 815:Generated_Source\PSoC6/ADC.h **** 
 816:Generated_Source\PSoC6/ADC.h ****     #define ADC_CFG3_SWITCH_CONF_INIT          0u
 817:Generated_Source\PSoC6/ADC.h **** 
 818:Generated_Source\PSoC6/ADC.h ****     /* If the SAR is configured for multiple channels, always set SAR_HW_CTRL_NEGVREF to 1 */
 819:Generated_Source\PSoC6/ADC.h ****     #define ADC_CFG3_HW_CTRL_NEGVREF_INIT      SAR_CTRL_SAR_HW_CTRL_NEGVREF_Msk
ARM GAS  C:\Users\zinch\AppData\Local\Temp\ccRcQgKK.s 			page 32


 820:Generated_Source\PSoC6/ADC.h **** 
 821:Generated_Source\PSoC6/ADC.h ****     #define ADC_CFG3_POWER_INIT  (ADC_PWR_CTRL_VREF_NORMAL_PWR)
 822:Generated_Source\PSoC6/ADC.h **** 
 823:Generated_Source\PSoC6/ADC.h ****     /* SAMPLE_CTRL initial values */
 824:Generated_Source\PSoC6/ADC.h ****     #define ADC_CFG3_SE_RESULT_FORMAT_INIT \
 825:Generated_Source\PSoC6/ADC.h ****             (ADC_CFG3_SINGLE_ENDED_FORMAT \
 826:Generated_Source\PSoC6/ADC.h ****             << SAR_SAMPLE_CTRL_SINGLE_ENDED_SIGNED_Pos)
 827:Generated_Source\PSoC6/ADC.h **** 
 828:Generated_Source\PSoC6/ADC.h ****     #define ADC_CFG3_DIFF_RESULT_FORMAT_INIT \
 829:Generated_Source\PSoC6/ADC.h ****             (ADC_CFG3_DIFFERENTIAL_FORMAT \
 830:Generated_Source\PSoC6/ADC.h ****             << SAR_SAMPLE_CTRL_DIFFERENTIAL_SIGNED_Pos)
 831:Generated_Source\PSoC6/ADC.h **** 
 832:Generated_Source\PSoC6/ADC.h ****     #define ADC_CFG3_AVG_SAMPLES_NUM_INIT \
 833:Generated_Source\PSoC6/ADC.h ****             (ADC_CFG3_SAMPLES_AVERAGED \
 834:Generated_Source\PSoC6/ADC.h ****             << SAR_SAMPLE_CTRL_AVG_CNT_Pos)
 835:Generated_Source\PSoC6/ADC.h **** 
 836:Generated_Source\PSoC6/ADC.h ****     /* Combination of Average Mode and Average Shift */
 837:Generated_Source\PSoC6/ADC.h ****     #define ADC_CFG3_AVG_MODE_INIT \
 838:Generated_Source\PSoC6/ADC.h ****             (ADC_CFG3_AVGERAGING_MODE \
 839:Generated_Source\PSoC6/ADC.h ****             << SAR_SAMPLE_CTRL_AVG_SHIFT_Pos)
 840:Generated_Source\PSoC6/ADC.h **** 
 841:Generated_Source\PSoC6/ADC.h ****     #define ADC_CFG3_TRIGGER_OUT_INIT      (0u)
 842:Generated_Source\PSoC6/ADC.h ****     #define ADC_CFG3_UAB_SCAN_MODE_INIT    (0u)
 843:Generated_Source\PSoC6/ADC.h **** 
 844:Generated_Source\PSoC6/ADC.h ****     #define ADC_CFG3_VREF_POWER_INIT  \
 845:Generated_Source\PSoC6/ADC.h ****             (ADC_CFG3_VREF_PWR \
 846:Generated_Source\PSoC6/ADC.h ****             << SAR_CTRL_PWR_CTRL_VREF_Pos)
 847:Generated_Source\PSoC6/ADC.h **** 
 848:Generated_Source\PSoC6/ADC.h ****     #define ADC_CFG3_COMP_PWR_INIT  \
 849:Generated_Source\PSoC6/ADC.h ****             (ADC_CFG3_COMP_PWR \
 850:Generated_Source\PSoC6/ADC.h ****             << SAR_CTRL_COMP_PWR_Pos)
 851:Generated_Source\PSoC6/ADC.h **** 
 852:Generated_Source\PSoC6/ADC.h ****     #define ADC_CFG3_COMP_DLY_INIT  \
 853:Generated_Source\PSoC6/ADC.h ****             (ADC_CFG3_COMP_DLY \
 854:Generated_Source\PSoC6/ADC.h ****             << SAR_CTRL_COMP_DLY_Pos)
 855:Generated_Source\PSoC6/ADC.h **** 
 856:Generated_Source\PSoC6/ADC.h ****     #define ADC_CFG3_CTRL_INIT  \
 857:Generated_Source\PSoC6/ADC.h ****             (ADC_CFG3_VREF_POWER_INIT \
 858:Generated_Source\PSoC6/ADC.h ****             | ADC_CFG3_VREF_SEL_MASK \
 859:Generated_Source\PSoC6/ADC.h ****             | ADC_CFG3_SE_NEG_INPUT_INIT \
 860:Generated_Source\PSoC6/ADC.h ****             | ADC_CFG3_HW_CTRL_NEGVREF_INIT \
 861:Generated_Source\PSoC6/ADC.h ****             | ADC_CFG3_COMP_DLY_INIT \
 862:Generated_Source\PSoC6/ADC.h ****             | SAR_CTRL_REFBUF_EN_Msk \
 863:Generated_Source\PSoC6/ADC.h ****             | ADC_CFG3_COMP_PWR_INIT \
 864:Generated_Source\PSoC6/ADC.h ****             | SAR_CTRL_DSI_SYNC_CONFIG_Msk  \
 865:Generated_Source\PSoC6/ADC.h ****             | ADC_CFG3_SWITCH_CONF_INIT )
 866:Generated_Source\PSoC6/ADC.h **** 
 867:Generated_Source\PSoC6/ADC.h **** 
 868:Generated_Source\PSoC6/ADC.h ****     #define ADC_CFG3_SAMPLE_CTRL_INIT \
 869:Generated_Source\PSoC6/ADC.h ****             (ADC_CFG3_SE_RESULT_FORMAT_INIT \
 870:Generated_Source\PSoC6/ADC.h ****             | ADC_CFG3_DIFF_RESULT_FORMAT_INIT \
 871:Generated_Source\PSoC6/ADC.h ****             | ADC_CFG3_AVG_SAMPLES_NUM_INIT \
 872:Generated_Source\PSoC6/ADC.h ****             | ADC_CFG3_AVG_MODE_INIT \
 873:Generated_Source\PSoC6/ADC.h ****             | ADC_CFG3_DSI_TRIGGER_LEVEL_INIT \
 874:Generated_Source\PSoC6/ADC.h ****             | ADC_CFG3_DSI_TRIGGER_EN_INIT \
 875:Generated_Source\PSoC6/ADC.h ****             | ADC_CFG3_UAB_SCAN_MODE_INIT \
 876:Generated_Source\PSoC6/ADC.h ****             | SAR_SAMPLE_CTRL_VALID_IGNORE_Msk \
ARM GAS  C:\Users\zinch\AppData\Local\Temp\ccRcQgKK.s 			page 33


 877:Generated_Source\PSoC6/ADC.h ****             | ADC_CFG3_TRIGGER_OUT_INIT \
 878:Generated_Source\PSoC6/ADC.h ****             | SAR_SAMPLE_CTRL_EOS_DSI_OUT_EN_Msk \
 879:Generated_Source\PSoC6/ADC.h ****     )
 880:Generated_Source\PSoC6/ADC.h **** 
 881:Generated_Source\PSoC6/ADC.h ****     #define ADC_CFG3_RANGE_THRES_INIT \
 882:Generated_Source\PSoC6/ADC.h ****             (ADC_CFG3_LOW_LIMIT \
 883:Generated_Source\PSoC6/ADC.h ****             | (uint32)((uint32)ADC_CFG3_HIGH_LIMIT \
 884:Generated_Source\PSoC6/ADC.h ****             << SAR_RANGE_THRES_RANGE_HIGH_Pos))
 885:Generated_Source\PSoC6/ADC.h **** 
 886:Generated_Source\PSoC6/ADC.h ****     #define ADC_CFG3_RANGE_COND_INIT   (cy_en_sar_range_detect_condition_t)ADC_CFG3_RANGE_COND
 887:Generated_Source\PSoC6/ADC.h **** 
 888:Generated_Source\PSoC6/ADC.h ****     /* Misc Config
 889:Generated_Source\PSoC6/ADC.h ****         [0] - Freerunning: Set if the sample mode is freerunning
 890:Generated_Source\PSoC6/ADC.h ****     */
 891:Generated_Source\PSoC6/ADC.h ****     #define ADC_CFG3_MISC_CONFIG_INIT \
 892:Generated_Source\PSoC6/ADC.h ****             (ADC_CFG3_FREERUNNING )
 893:Generated_Source\PSoC6/ADC.h **** 
 894:Generated_Source\PSoC6/ADC.h **** #endif /* ADC_TOTAL_CONFIGS > 3 */
 895:Generated_Source\PSoC6/ADC.h **** 
 896:Generated_Source\PSoC6/ADC.h **** /* ************************************************************************** */
 897:Generated_Source\PSoC6/ADC.h **** /* End configuration 3 calculated defines                                     */
 898:Generated_Source\PSoC6/ADC.h **** /* ************************************************************************** */
 899:Generated_Source\PSoC6/ADC.h **** 
 900:Generated_Source\PSoC6/ADC.h **** /******************************************************************************
 901:Generated_Source\PSoC6/ADC.h **** * Function Name: ADC_Enable
 902:Generated_Source\PSoC6/ADC.h **** ****************************************************************************//*
 903:Generated_Source\PSoC6/ADC.h **** *
 904:Generated_Source\PSoC6/ADC.h **** * \brief Enables the component.
 905:Generated_Source\PSoC6/ADC.h **** *
 906:Generated_Source\PSoC6/ADC.h **** * \param None
 907:Generated_Source\PSoC6/ADC.h **** *
 908:Generated_Source\PSoC6/ADC.h **** * \return None
 909:Generated_Source\PSoC6/ADC.h **** *
 910:Generated_Source\PSoC6/ADC.h **** * \sideeffect
 911:Generated_Source\PSoC6/ADC.h **** *  None
 912:Generated_Source\PSoC6/ADC.h **** *
 913:Generated_Source\PSoC6/ADC.h **** *******************************************************************************/
 914:Generated_Source\PSoC6/ADC.h **** __STATIC_INLINE void ADC_Enable(void)
 915:Generated_Source\PSoC6/ADC.h **** {
 916:Generated_Source\PSoC6/ADC.h ****     Cy_SAR_Enable(ADC_SAR__HW);
 917:Generated_Source\PSoC6/ADC.h **** }
 918:Generated_Source\PSoC6/ADC.h **** 
 919:Generated_Source\PSoC6/ADC.h **** /*******************************************************************************
 920:Generated_Source\PSoC6/ADC.h **** * Function Name: ADC_Stop
 921:Generated_Source\PSoC6/ADC.h **** ****************************************************************************//**
 922:Generated_Source\PSoC6/ADC.h **** *
 923:Generated_Source\PSoC6/ADC.h **** * \brief This function stops ADC conversions and puts the ADC into its lowest
 924:Generated_Source\PSoC6/ADC.h **** * power mode.
 925:Generated_Source\PSoC6/ADC.h **** *
 926:Generated_Source\PSoC6/ADC.h **** * \param None
 927:Generated_Source\PSoC6/ADC.h **** *
 928:Generated_Source\PSoC6/ADC.h **** * \return None
 929:Generated_Source\PSoC6/ADC.h **** *
 930:Generated_Source\PSoC6/ADC.h **** * \sideeffect
 931:Generated_Source\PSoC6/ADC.h **** * Do not use the ADC_Stop() API to halt conversions. Instead use the
 932:Generated_Source\PSoC6/ADC.h **** * ADC_StopConvert() API. If you use the ADC_Stop() API
 933:Generated_Source\PSoC6/ADC.h **** * to halt conversions then later use the ADC_Start() and
ARM GAS  C:\Users\zinch\AppData\Local\Temp\ccRcQgKK.s 			page 34


 934:Generated_Source\PSoC6/ADC.h **** * ADC_StartConvert() APIs to resume conversions, the first channel
 935:Generated_Source\PSoC6/ADC.h **** * of the scan may be corrupt. The ADC_StopConvert() API will enable
 936:Generated_Source\PSoC6/ADC.h **** * the ADC to complete the current scan of channels. After the
 937:Generated_Source\PSoC6/ADC.h **** * channel scan is complete, the ADC will stop all conversions, which
 938:Generated_Source\PSoC6/ADC.h **** * can be detected by the use of an ISR or the ADC_IsEndConversion()
 939:Generated_Source\PSoC6/ADC.h **** * function.
 940:Generated_Source\PSoC6/ADC.h **** *
 941:Generated_Source\PSoC6/ADC.h **** *******************************************************************************/
 942:Generated_Source\PSoC6/ADC.h **** __STATIC_INLINE void ADC_Stop(void)
 943:Generated_Source\PSoC6/ADC.h **** {
 944:Generated_Source\PSoC6/ADC.h ****     Cy_SAR_Disable(ADC_SAR__HW);
 945:Generated_Source\PSoC6/ADC.h **** }
 946:Generated_Source\PSoC6/ADC.h **** 
 947:Generated_Source\PSoC6/ADC.h **** /*******************************************************************************
 948:Generated_Source\PSoC6/ADC.h **** * Function Name: ADC_StopConvert
 949:Generated_Source\PSoC6/ADC.h **** ****************************************************************************//**
 950:Generated_Source\PSoC6/ADC.h **** *
 951:Generated_Source\PSoC6/ADC.h **** * \brief Forces the ADC to stop conversions. If a conversion is
 952:Generated_Source\PSoC6/ADC.h **** * currently executing, that conversion will complete, but no further conversions
 953:Generated_Source\PSoC6/ADC.h **** * will occur.
 954:Generated_Source\PSoC6/ADC.h **** *
 955:Generated_Source\PSoC6/ADC.h **** * \param None
 956:Generated_Source\PSoC6/ADC.h **** *
 957:Generated_Source\PSoC6/ADC.h **** * \return None
 958:Generated_Source\PSoC6/ADC.h **** *
 959:Generated_Source\PSoC6/ADC.h **** * \sideeffect None
 960:Generated_Source\PSoC6/ADC.h **** *
 961:Generated_Source\PSoC6/ADC.h **** *******************************************************************************/
 962:Generated_Source\PSoC6/ADC.h **** __STATIC_INLINE void ADC_StopConvert(void)
 963:Generated_Source\PSoC6/ADC.h **** {
 964:Generated_Source\PSoC6/ADC.h ****     Cy_SAR_StopConvert(ADC_SAR__HW);
 965:Generated_Source\PSoC6/ADC.h **** }
 966:Generated_Source\PSoC6/ADC.h **** 
 967:Generated_Source\PSoC6/ADC.h **** /*******************************************************************************
 968:Generated_Source\PSoC6/ADC.h **** * Function Name: ADC_GetResult16
 969:Generated_Source\PSoC6/ADC.h **** ****************************************************************************//**
 970:Generated_Source\PSoC6/ADC.h **** *
 971:Generated_Source\PSoC6/ADC.h **** * \brief Gets the data available in the channel result data register
 972:Generated_Source\PSoC6/ADC.h **** *
 973:Generated_Source\PSoC6/ADC.h **** * \param chan The ADC channel to read the result from. The first
 974:Generated_Source\PSoC6/ADC.h **** * channel is 0.
 975:Generated_Source\PSoC6/ADC.h **** *
 976:Generated_Source\PSoC6/ADC.h **** * \return Returns converted data as a signed 16-bit integer.
 977:Generated_Source\PSoC6/ADC.h **** *
 978:Generated_Source\PSoC6/ADC.h **** * \sideeffect None
 979:Generated_Source\PSoC6/ADC.h **** *
 980:Generated_Source\PSoC6/ADC.h **** *******************************************************************************/
 981:Generated_Source\PSoC6/ADC.h **** __STATIC_INLINE int16_t ADC_GetResult16(uint32_t chan)
 982:Generated_Source\PSoC6/ADC.h **** {
 983:Generated_Source\PSoC6/ADC.h ****     /* Halt CPU in debug mode if channel is out of valid range */
 984:Generated_Source\PSoC6/ADC.h ****     CY_ASSERT(chan < ADC_allConfigs[ADC_currentConfig].numChannels);
  74              		.loc 3 984 0 discriminator 3
  75 0020 204B     		ldr	r3, .L7+8
  76 0022 1B68     		ldr	r3, [r3]
  77 0024 03EB8303 		add	r3, r3, r3, lsl #2
  78 0028 9A00     		lsls	r2, r3, #2
  79 002a 1F4B     		ldr	r3, .L7+12
ARM GAS  C:\Users\zinch\AppData\Local\Temp\ccRcQgKK.s 			page 35


  80 002c 1A44     		add	r2, r2, r3
  81 002e 5368     		ldr	r3, [r2, #4]
  82 0030 23B9     		cbnz	r3, .L3
  83              		.loc 3 984 0 is_stmt 0
  84 0032 4FF47671 		mov	r1, #984
  85 0036 1D48     		ldr	r0, .L7+16
  86 0038 FFF7FEFF 		bl	Cy_SysLib_AssertFailed
  87              	.LVL7:
  88              	.L3:
 985:Generated_Source\PSoC6/ADC.h **** 
 986:Generated_Source\PSoC6/ADC.h ****     return Cy_SAR_GetResult16(ADC_SAR__HW, chan);
  89              		.loc 3 986 0 is_stmt 1
  90 003c 0021     		movs	r1, #0
  91 003e 1C48     		ldr	r0, .L7+20
  92 0040 FFF7FEFF 		bl	Cy_SAR_GetResult16
  93              	.LVL8:
  94 0044 0546     		mov	r5, r0
  95              	.LVL9:
  96              	.LBE56:
  97              	.LBE55:
  98              	.LBB57:
  99              	.LBB58:
 987:Generated_Source\PSoC6/ADC.h **** }
 988:Generated_Source\PSoC6/ADC.h **** 
 989:Generated_Source\PSoC6/ADC.h **** /*******************************************************************************
 990:Generated_Source\PSoC6/ADC.h **** * Function Name: ADC_GetResult32
 991:Generated_Source\PSoC6/ADC.h **** ****************************************************************************//**
 992:Generated_Source\PSoC6/ADC.h **** *
 993:Generated_Source\PSoC6/ADC.h **** * \brief Gets the data available in the channel result data register.
 994:Generated_Source\PSoC6/ADC.h **** *
 995:Generated_Source\PSoC6/ADC.h **** * \param chan The ADC channel to read the result from. The first
 996:Generated_Source\PSoC6/ADC.h **** * channel is 0.
 997:Generated_Source\PSoC6/ADC.h **** *
 998:Generated_Source\PSoC6/ADC.h **** * \return Returns converted data as a signed 32-bit integer.
 999:Generated_Source\PSoC6/ADC.h **** *
1000:Generated_Source\PSoC6/ADC.h **** * \sideeffect None
1001:Generated_Source\PSoC6/ADC.h **** *
1002:Generated_Source\PSoC6/ADC.h **** *******************************************************************************/
1003:Generated_Source\PSoC6/ADC.h **** __STATIC_INLINE int32_t ADC_GetResult32(uint32_t chan)
1004:Generated_Source\PSoC6/ADC.h **** {
1005:Generated_Source\PSoC6/ADC.h ****     int32_t finalResult;
1006:Generated_Source\PSoC6/ADC.h **** 
1007:Generated_Source\PSoC6/ADC.h ****     /* Halt CPU in debug mode if channel is out of valid range */
1008:Generated_Source\PSoC6/ADC.h ****     CY_ASSERT(chan < ADC_allConfigs[ADC_currentConfig].numChannels);
1009:Generated_Source\PSoC6/ADC.h **** 
1010:Generated_Source\PSoC6/ADC.h ****     finalResult = Cy_SAR_GetResult32(ADC_SAR__HW, chan);
1011:Generated_Source\PSoC6/ADC.h **** 
1012:Generated_Source\PSoC6/ADC.h ****     return finalResult;
1013:Generated_Source\PSoC6/ADC.h **** }
1014:Generated_Source\PSoC6/ADC.h **** 
1015:Generated_Source\PSoC6/ADC.h **** /*******************************************************************************
1016:Generated_Source\PSoC6/ADC.h **** * Function Name: ADC_SetLowLimit
1017:Generated_Source\PSoC6/ADC.h **** ****************************************************************************//**
1018:Generated_Source\PSoC6/ADC.h **** *
1019:Generated_Source\PSoC6/ADC.h **** * \brief Sets the low limit parameter for a limit condition.
1020:Generated_Source\PSoC6/ADC.h **** *
1021:Generated_Source\PSoC6/ADC.h **** * \param lowLimit The low limit for a limit condition.
ARM GAS  C:\Users\zinch\AppData\Local\Temp\ccRcQgKK.s 			page 36


1022:Generated_Source\PSoC6/ADC.h **** *
1023:Generated_Source\PSoC6/ADC.h **** * \return None
1024:Generated_Source\PSoC6/ADC.h **** *
1025:Generated_Source\PSoC6/ADC.h **** * \sideeffect None
1026:Generated_Source\PSoC6/ADC.h **** *
1027:Generated_Source\PSoC6/ADC.h **** *******************************************************************************/
1028:Generated_Source\PSoC6/ADC.h **** __STATIC_INLINE void ADC_SetLowLimit(uint32_t lowLimit)
1029:Generated_Source\PSoC6/ADC.h **** {
1030:Generated_Source\PSoC6/ADC.h ****     Cy_SAR_SetLowLimit(ADC_SAR__HW, lowLimit);
1031:Generated_Source\PSoC6/ADC.h **** }
1032:Generated_Source\PSoC6/ADC.h **** 
1033:Generated_Source\PSoC6/ADC.h **** /*******************************************************************************
1034:Generated_Source\PSoC6/ADC.h **** * Function Name: ADC_SetHighLimit
1035:Generated_Source\PSoC6/ADC.h **** ****************************************************************************//**
1036:Generated_Source\PSoC6/ADC.h **** *
1037:Generated_Source\PSoC6/ADC.h **** * \brief Sets the high limit parameter for a limit condition.
1038:Generated_Source\PSoC6/ADC.h **** *
1039:Generated_Source\PSoC6/ADC.h **** * \param highLimit The high limit for a limit condition.
1040:Generated_Source\PSoC6/ADC.h **** *
1041:Generated_Source\PSoC6/ADC.h **** * \return None
1042:Generated_Source\PSoC6/ADC.h **** *
1043:Generated_Source\PSoC6/ADC.h **** * \sideeffect None
1044:Generated_Source\PSoC6/ADC.h **** *
1045:Generated_Source\PSoC6/ADC.h **** *******************************************************************************/
1046:Generated_Source\PSoC6/ADC.h **** __STATIC_INLINE void ADC_SetHighLimit(uint32_t highLimit)
1047:Generated_Source\PSoC6/ADC.h **** {
1048:Generated_Source\PSoC6/ADC.h ****     Cy_SAR_SetHighLimit(ADC_SAR__HW, highLimit);
1049:Generated_Source\PSoC6/ADC.h **** }
1050:Generated_Source\PSoC6/ADC.h **** 
1051:Generated_Source\PSoC6/ADC.h **** /*******************************************************************************
1052:Generated_Source\PSoC6/ADC.h **** * Function Name: ADC_SetLimitMask
1053:Generated_Source\PSoC6/ADC.h **** ****************************************************************************//**
1054:Generated_Source\PSoC6/ADC.h **** *
1055:Generated_Source\PSoC6/ADC.h **** * \brief Sets the channel limit condition mask.
1056:Generated_Source\PSoC6/ADC.h **** *
1057:Generated_Source\PSoC6/ADC.h **** *
1058:Generated_Source\PSoC6/ADC.h **** * \param limitMask
1059:Generated_Source\PSoC6/ADC.h **** * Sets which channels can cause a limit condition interrupt.
1060:Generated_Source\PSoC6/ADC.h **** * Bit N of the mask enables the limit condition interrupt for channel N.
1061:Generated_Source\PSoC6/ADC.h **** * The limitMask cannot be larger than the number of channels.
1062:Generated_Source\PSoC6/ADC.h **** * If a channel is not enabled, it cannot cause any interrupts.
1063:Generated_Source\PSoC6/ADC.h **** *
1064:Generated_Source\PSoC6/ADC.h **** * \return None
1065:Generated_Source\PSoC6/ADC.h **** *
1066:Generated_Source\PSoC6/ADC.h **** * \sideeffect None
1067:Generated_Source\PSoC6/ADC.h **** *
1068:Generated_Source\PSoC6/ADC.h **** *******************************************************************************/
1069:Generated_Source\PSoC6/ADC.h **** __STATIC_INLINE void ADC_SetLimitMask(uint32_t limitMask)
1070:Generated_Source\PSoC6/ADC.h **** {
1071:Generated_Source\PSoC6/ADC.h ****     Cy_SAR_SetRangeInterruptMask(ADC_SAR__HW, limitMask);
1072:Generated_Source\PSoC6/ADC.h **** }
1073:Generated_Source\PSoC6/ADC.h **** 
1074:Generated_Source\PSoC6/ADC.h **** /*******************************************************************************
1075:Generated_Source\PSoC6/ADC.h **** * Function Name: ADC_SetSatMask
1076:Generated_Source\PSoC6/ADC.h **** ****************************************************************************//**
1077:Generated_Source\PSoC6/ADC.h **** *
1078:Generated_Source\PSoC6/ADC.h **** * \brief Sets the channel saturation event mask.
ARM GAS  C:\Users\zinch\AppData\Local\Temp\ccRcQgKK.s 			page 37


1079:Generated_Source\PSoC6/ADC.h **** *
1080:Generated_Source\PSoC6/ADC.h **** * \param satMask
1081:Generated_Source\PSoC6/ADC.h **** * Sets which channels can cause a saturation event interrupt.
1082:Generated_Source\PSoC6/ADC.h **** * Bit N of the mask enables the saturation event interrupt for channel N.
1083:Generated_Source\PSoC6/ADC.h **** * The satMask cannot be larger than the number of channels.
1084:Generated_Source\PSoC6/ADC.h **** * If a channel is not enabled, it cannot cause any interrupts.
1085:Generated_Source\PSoC6/ADC.h **** *
1086:Generated_Source\PSoC6/ADC.h **** * \return None
1087:Generated_Source\PSoC6/ADC.h **** *
1088:Generated_Source\PSoC6/ADC.h **** * \sideeffect None
1089:Generated_Source\PSoC6/ADC.h **** *
1090:Generated_Source\PSoC6/ADC.h **** *******************************************************************************/
1091:Generated_Source\PSoC6/ADC.h **** __STATIC_INLINE void ADC_SetSatMask(uint32_t satMask)
1092:Generated_Source\PSoC6/ADC.h **** {
1093:Generated_Source\PSoC6/ADC.h ****     Cy_SAR_SetSatInterruptMask(ADC_SAR__HW, satMask);
1094:Generated_Source\PSoC6/ADC.h **** }
1095:Generated_Source\PSoC6/ADC.h **** 
1096:Generated_Source\PSoC6/ADC.h **** /*******************************************************************************
1097:Generated_Source\PSoC6/ADC.h **** * Function Name: ADC_SetOffset
1098:Generated_Source\PSoC6/ADC.h **** ****************************************************************************//**
1099:Generated_Source\PSoC6/ADC.h **** *
1100:Generated_Source\PSoC6/ADC.h **** * \brief Sets the ADC offset that is used by the functions ADC_CountsTo_uVolts,
1101:Generated_Source\PSoC6/ADC.h **** * ADC_CountsTo_mVolts, and ADC_CountsTo_Volts.
1102:Generated_Source\PSoC6/ADC.h **** *
1103:Generated_Source\PSoC6/ADC.h **** * Offset is applied to counts before unit scaling and gain.  All CountsTo_[mV, uV, V]olts()
1104:Generated_Source\PSoC6/ADC.h **** * functions use the following equation:
1105:Generated_Source\PSoC6/ADC.h **** *     V = (Counts/AvgDivider - Offset)*TEN_VOLT/Gain
1106:Generated_Source\PSoC6/ADC.h **** * See CountsTo_Volts() for more about this formula.
1107:Generated_Source\PSoC6/ADC.h **** *
1108:Generated_Source\PSoC6/ADC.h **** * To set channel 0's offset based on known V_offset_mV, use:
1109:Generated_Source\PSoC6/ADC.h **** *     ADC_SetOffset(0uL, -1 * V_offset_mV * (1uL << (Resolution - 1)) / V_ref_mV);
1110:Generated_Source\PSoC6/ADC.h **** *
1111:Generated_Source\PSoC6/ADC.h **** * \param chan ADC channel number.
1112:Generated_Source\PSoC6/ADC.h **** *
1113:Generated_Source\PSoC6/ADC.h **** * \param offset This value is a measured value when the inputs are shorted or
1114:Generated_Source\PSoC6/ADC.h **** * connected to the same input voltage.
1115:Generated_Source\PSoC6/ADC.h **** *
1116:Generated_Source\PSoC6/ADC.h **** * \return cy_en_sar_status_t
1117:Generated_Source\PSoC6/ADC.h **** * - CY_SAR_BAD_PARAM: channel number is equal to or greater than CY_SAR_MAX_NUM_CHANNELS
1118:Generated_Source\PSoC6/ADC.h **** * - CY_SAR_SUCCESS: offset was set successfully
1119:Generated_Source\PSoC6/ADC.h **** *
1120:Generated_Source\PSoC6/ADC.h **** * \sideeffect None
1121:Generated_Source\PSoC6/ADC.h **** *
1122:Generated_Source\PSoC6/ADC.h **** *******************************************************************************/
1123:Generated_Source\PSoC6/ADC.h **** __STATIC_INLINE cy_en_sar_status_t ADC_SetOffset(uint32_t chan, int16_t offset)
1124:Generated_Source\PSoC6/ADC.h **** {
1125:Generated_Source\PSoC6/ADC.h ****     /* Halt CPU in debug mode if channel is out of valid range */
1126:Generated_Source\PSoC6/ADC.h ****     CY_ASSERT(chan < ADC_allConfigs[ADC_currentConfig].numChannels);
1127:Generated_Source\PSoC6/ADC.h **** 
1128:Generated_Source\PSoC6/ADC.h ****     return Cy_SAR_SetOffset(chan, offset);
1129:Generated_Source\PSoC6/ADC.h **** }
1130:Generated_Source\PSoC6/ADC.h **** 
1131:Generated_Source\PSoC6/ADC.h **** /*******************************************************************************
1132:Generated_Source\PSoC6/ADC.h **** * Function Name: ADC_SetGain
1133:Generated_Source\PSoC6/ADC.h **** ****************************************************************************//**
1134:Generated_Source\PSoC6/ADC.h **** *
1135:Generated_Source\PSoC6/ADC.h **** * \brief Sets the ADC gain in counts per 10 volt for the voltage
ARM GAS  C:\Users\zinch\AppData\Local\Temp\ccRcQgKK.s 			page 38


1136:Generated_Source\PSoC6/ADC.h **** * conversion functions. This value is set by default by the reference and
1137:Generated_Source\PSoC6/ADC.h **** * input range settings. Gain is applied after offset and unit scaling.  All
1138:Generated_Source\PSoC6/ADC.h **** * CountsTo_[mV, uV, V]olts() functions use the following equation:
1139:Generated_Source\PSoC6/ADC.h **** *     V = (Counts/AvgDivider - Offset)*TEN_VOLT/Gain
1140:Generated_Source\PSoC6/ADC.h **** * See CountsTo_Volts() for more about this formula.
1141:Generated_Source\PSoC6/ADC.h **** *
1142:Generated_Source\PSoC6/ADC.h **** * To set channel 0's gain based on known V_ref_mV, use:
1143:Generated_Source\PSoC6/ADC.h **** *     ADC_SetGain(0uL, 10000 * (1uL << (Resolution - 1)) / V_ref_mV);
1144:Generated_Source\PSoC6/ADC.h **** *
1145:Generated_Source\PSoC6/ADC.h **** * \param chan ADC channel number.
1146:Generated_Source\PSoC6/ADC.h **** *
1147:Generated_Source\PSoC6/ADC.h **** * \param adcGain ADC gain in counts per 10 volt.
1148:Generated_Source\PSoC6/ADC.h **** *
1149:Generated_Source\PSoC6/ADC.h **** * \return cy_en_sar_status_t
1150:Generated_Source\PSoC6/ADC.h **** * - CY_SAR_BAD_PARAM: channel number is equal to or greater than CY_SAR_MAX_NUM_CHANNELS
1151:Generated_Source\PSoC6/ADC.h **** * - CY_SAR_SUCCESS: gain was set successfully
1152:Generated_Source\PSoC6/ADC.h **** *
1153:Generated_Source\PSoC6/ADC.h **** * \sideeffect None
1154:Generated_Source\PSoC6/ADC.h **** *
1155:Generated_Source\PSoC6/ADC.h **** *******************************************************************************/
1156:Generated_Source\PSoC6/ADC.h **** __STATIC_INLINE cy_en_sar_status_t ADC_SetGain(uint32_t chan, int32_t adcGain)
1157:Generated_Source\PSoC6/ADC.h **** {
1158:Generated_Source\PSoC6/ADC.h ****     /* Halt CPU in debug mode if channel is out of valid range */
1159:Generated_Source\PSoC6/ADC.h ****     CY_ASSERT(chan < ADC_allConfigs[ADC_currentConfig].numChannels);
1160:Generated_Source\PSoC6/ADC.h **** 
1161:Generated_Source\PSoC6/ADC.h ****     return Cy_SAR_SetGain(chan, adcGain);
1162:Generated_Source\PSoC6/ADC.h **** }
1163:Generated_Source\PSoC6/ADC.h **** 
1164:Generated_Source\PSoC6/ADC.h **** /*******************************************************************************
1165:Generated_Source\PSoC6/ADC.h **** * Function Name: ADC_CountsTo_Volts
1166:Generated_Source\PSoC6/ADC.h **** ****************************************************************************//**
1167:Generated_Source\PSoC6/ADC.h **** *
1168:Generated_Source\PSoC6/ADC.h **** * \brief Converts the ADC output to Volts as a float32. For example, if the ADC
1169:Generated_Source\PSoC6/ADC.h **** * measured 0.534 volts, the return value would be 0.534.
1170:Generated_Source\PSoC6/ADC.h **** * The calculation of voltage depends on the contents of Cy_SAR_offset[],
1171:Generated_Source\PSoC6/ADC.h **** * Cy_SAR_countsPer10Volt[], and other parameters.  The equation used is:
1172:Generated_Source\PSoC6/ADC.h **** *
1173:Generated_Source\PSoC6/ADC.h **** *     V = (Counts/AvgDivider - Offset)*TEN_VOLT/Gain
1174:Generated_Source\PSoC6/ADC.h **** * -Counts = Raw Counts from SAR register
1175:Generated_Source\PSoC6/ADC.h **** * -AvgDivider = divider based on averaging mode
1176:Generated_Source\PSoC6/ADC.h **** *     -Sequential, Sum: AvgDivider = number averaged
1177:Generated_Source\PSoC6/ADC.h **** *         Note: The divider should be a maximum of 16. If using more averages,
1178:Generated_Source\PSoC6/ADC.h **** *         pre-scale Counts by (number averaged / 16)
1179:Generated_Source\PSoC6/ADC.h **** *     -Interleaved, Sum: AvgDivider = number averaged
1180:Generated_Source\PSoC6/ADC.h **** *     -Sequential, Fixed: AvgDivider = 1
1181:Generated_Source\PSoC6/ADC.h **** * -Offset = Cy_SAR_offset[]
1182:Generated_Source\PSoC6/ADC.h **** * -TEN_VOLT = 10V constant and unit scalar.
1183:Generated_Source\PSoC6/ADC.h **** * -Gain = Cy_SAR_countsPer10Volt[]
1184:Generated_Source\PSoC6/ADC.h **** *
1185:Generated_Source\PSoC6/ADC.h **** * When the Vref is based on Vdda, the value used for Vdda is set for the project
1186:Generated_Source\PSoC6/ADC.h **** * in the System tab of the DWR.
1187:Generated_Source\PSoC6/ADC.h **** *
1188:Generated_Source\PSoC6/ADC.h **** * \param chan ADC channel number.
1189:Generated_Source\PSoC6/ADC.h **** *
1190:Generated_Source\PSoC6/ADC.h **** * \param adcCounts Result from the ADC conversion.
1191:Generated_Source\PSoC6/ADC.h **** *
1192:Generated_Source\PSoC6/ADC.h **** * \return Result in Volts.
ARM GAS  C:\Users\zinch\AppData\Local\Temp\ccRcQgKK.s 			page 39


1193:Generated_Source\PSoC6/ADC.h **** *
1194:Generated_Source\PSoC6/ADC.h **** * \sideeffect None
1195:Generated_Source\PSoC6/ADC.h **** *
1196:Generated_Source\PSoC6/ADC.h **** *******************************************************************************/
1197:Generated_Source\PSoC6/ADC.h **** __STATIC_INLINE float32_t ADC_CountsTo_Volts(uint32_t chan, int16_t adcCounts)
1198:Generated_Source\PSoC6/ADC.h **** {
1199:Generated_Source\PSoC6/ADC.h ****     /* Halt CPU in debug mode if channel is out of valid range */
1200:Generated_Source\PSoC6/ADC.h ****     CY_ASSERT(chan < ADC_allConfigs[ADC_currentConfig].numChannels);
1201:Generated_Source\PSoC6/ADC.h **** 
1202:Generated_Source\PSoC6/ADC.h ****     return Cy_SAR_CountsTo_Volts(ADC_SAR__HW, chan, adcCounts);
1203:Generated_Source\PSoC6/ADC.h **** }
1204:Generated_Source\PSoC6/ADC.h **** 
1205:Generated_Source\PSoC6/ADC.h **** /*******************************************************************************
1206:Generated_Source\PSoC6/ADC.h **** * Function Name: ADC_CountsTo_mVolts
1207:Generated_Source\PSoC6/ADC.h **** ****************************************************************************//**
1208:Generated_Source\PSoC6/ADC.h **** *
1209:Generated_Source\PSoC6/ADC.h **** * \brief Converts the ADC output to millivolts as an int16. For example, if the ADC
1210:Generated_Source\PSoC6/ADC.h **** * measured 0.534 volts, the return value would be 534.
1211:Generated_Source\PSoC6/ADC.h **** * The calculation of voltage depends on the contents of Cy_SAR_offset[],
1212:Generated_Source\PSoC6/ADC.h **** * Cy_SAR_countsPer10Volt[], and other parameters.  The equation used is:
1213:Generated_Source\PSoC6/ADC.h **** *
1214:Generated_Source\PSoC6/ADC.h **** *     V = (Counts/AvgDivider - Offset)*TEN_VOLT/Gain
1215:Generated_Source\PSoC6/ADC.h **** * -Counts = Raw Counts from SAR register
1216:Generated_Source\PSoC6/ADC.h **** * -AvgDivider = divider based on averaging mode
1217:Generated_Source\PSoC6/ADC.h **** *     -Sequential, Sum: AvgDivider = number averaged
1218:Generated_Source\PSoC6/ADC.h **** *         Note: The divider should be a maximum of 16. If using more averages,
1219:Generated_Source\PSoC6/ADC.h **** *         pre-scale Counts by (number averaged / 16)
1220:Generated_Source\PSoC6/ADC.h **** *     -Interleaved, Sum: AvgDivider = number averaged
1221:Generated_Source\PSoC6/ADC.h **** *     -Sequential, Fixed: AvgDivider = 1
1222:Generated_Source\PSoC6/ADC.h **** * -Offset = Cy_SAR_offset[]
1223:Generated_Source\PSoC6/ADC.h **** * -TEN_VOLT = 10V constant and unit scalar.
1224:Generated_Source\PSoC6/ADC.h **** * -Gain = Cy_SAR_countsPer10Volt[]
1225:Generated_Source\PSoC6/ADC.h **** *
1226:Generated_Source\PSoC6/ADC.h **** * When the Vref is based on Vdda, the value used for Vdda is set for the project
1227:Generated_Source\PSoC6/ADC.h **** * in the System tab of the DWR.
1228:Generated_Source\PSoC6/ADC.h **** *
1229:Generated_Source\PSoC6/ADC.h **** * \param chan ADC channel number.
1230:Generated_Source\PSoC6/ADC.h **** *
1231:Generated_Source\PSoC6/ADC.h **** * \param adcCounts Result from the ADC conversion.
1232:Generated_Source\PSoC6/ADC.h **** *
1233:Generated_Source\PSoC6/ADC.h **** * \return Result in mV.
1234:Generated_Source\PSoC6/ADC.h **** *
1235:Generated_Source\PSoC6/ADC.h **** * \sideeffect None.
1236:Generated_Source\PSoC6/ADC.h **** *
1237:Generated_Source\PSoC6/ADC.h **** *******************************************************************************/
1238:Generated_Source\PSoC6/ADC.h **** __STATIC_INLINE int16_t ADC_CountsTo_mVolts(uint32_t chan, int16_t adcCounts)
1239:Generated_Source\PSoC6/ADC.h **** {
1240:Generated_Source\PSoC6/ADC.h ****     /* Halt CPU in debug mode if channel is out of valid range */
1241:Generated_Source\PSoC6/ADC.h ****     CY_ASSERT(chan < ADC_allConfigs[ADC_currentConfig].numChannels);
 100              		.loc 3 1241 0
 101 0046 174B     		ldr	r3, .L7+8
 102 0048 1B68     		ldr	r3, [r3]
 103 004a 03EB8303 		add	r3, r3, r3, lsl #2
 104 004e 9A00     		lsls	r2, r3, #2
 105 0050 154B     		ldr	r3, .L7+12
 106 0052 1A44     		add	r2, r2, r3
 107 0054 5368     		ldr	r3, [r2, #4]
ARM GAS  C:\Users\zinch\AppData\Local\Temp\ccRcQgKK.s 			page 40


 108 0056 23B9     		cbnz	r3, .L4
 109 0058 40F2D941 		movw	r1, #1241
 110 005c 1348     		ldr	r0, .L7+16
 111 005e FFF7FEFF 		bl	Cy_SysLib_AssertFailed
 112              	.LVL10:
 113              	.L4:
1242:Generated_Source\PSoC6/ADC.h **** 
1243:Generated_Source\PSoC6/ADC.h ****     return Cy_SAR_CountsTo_mVolts(ADC_SAR__HW, chan, adcCounts);
 114              		.loc 3 1243 0
 115 0062 2A46     		mov	r2, r5
 116 0064 0021     		movs	r1, #0
 117 0066 1248     		ldr	r0, .L7+20
 118 0068 FFF7FEFF 		bl	Cy_SAR_CountsTo_mVolts
 119              	.LVL11:
 120              	.LBE58:
 121              	.LBE57:
  63:main_cm4.c    ****         int16_t ADC_Result = ADC_GetResult16(0);
  64:main_cm4.c    **** 
  65:main_cm4.c    ****         int16_t Mic_mV = ADC_CountsTo_mVolts(0, ADC_Result);
  66:main_cm4.c    ****         voice[idx] = (int8_t) Mic_mV - 1600;
 122              		.loc 1 66 0
 123 006c 4038     		subs	r0, r0, #64
 124 006e 114B     		ldr	r3, .L7+24
 125 0070 1855     		strb	r0, [r3, r4]
 126              	.LBE54:
  61:main_cm4.c    ****         ADC_IsEndConversion(CY_SAR_WAIT_FOR_RESULT);
 127              		.loc 1 61 0
 128 0072 0134     		adds	r4, r4, #1
 129              	.LVL12:
 130              	.L2:
  61:main_cm4.c    ****         ADC_IsEndConversion(CY_SAR_WAIT_FOR_RESULT);
 131              		.loc 1 61 0 is_stmt 0 discriminator 1
 132 0074 104B     		ldr	r3, .L7+28
 133 0076 9C42     		cmp	r4, r3
 134 0078 CFDD     		ble	.L5
 135              	.LBE53:
 136              	.LBB59:
 137              	.LBB60:
 964:Generated_Source\PSoC6/ADC.h **** }
 138              		.loc 3 964 0 is_stmt 1
 139 007a 0D4C     		ldr	r4, .L7+20
 140              	.LVL13:
 141 007c 2046     		mov	r0, r4
 142 007e FFF7FEFF 		bl	Cy_SAR_StopConvert
 143              	.LVL14:
 144              	.LBE60:
 145              	.LBE59:
 146              	.LBB61:
 147              	.LBB62:
 148              	.LBB63:
 149              		.file 4 "Generated_Source\\PSoC6\\pdl\\drivers/peripheral/sar/cy_sar.h"
   1:Generated_Source\PSoC6\pdl\drivers/peripheral/sar/cy_sar.h **** /***************************************************************************//**
   2:Generated_Source\PSoC6\pdl\drivers/peripheral/sar/cy_sar.h **** * \file cy_sar.h
   3:Generated_Source\PSoC6\pdl\drivers/peripheral/sar/cy_sar.h **** * \version 1.20
   4:Generated_Source\PSoC6\pdl\drivers/peripheral/sar/cy_sar.h **** *
   5:Generated_Source\PSoC6\pdl\drivers/peripheral/sar/cy_sar.h **** * Header file for the SAR driver.
   6:Generated_Source\PSoC6\pdl\drivers/peripheral/sar/cy_sar.h **** *
ARM GAS  C:\Users\zinch\AppData\Local\Temp\ccRcQgKK.s 			page 41


   7:Generated_Source\PSoC6\pdl\drivers/peripheral/sar/cy_sar.h **** ********************************************************************************
   8:Generated_Source\PSoC6\pdl\drivers/peripheral/sar/cy_sar.h **** * \copyright
   9:Generated_Source\PSoC6\pdl\drivers/peripheral/sar/cy_sar.h **** * Copyright 2017-2018, Cypress Semiconductor Corporation. All rights reserved.
  10:Generated_Source\PSoC6\pdl\drivers/peripheral/sar/cy_sar.h **** * You may use this file only in accordance with the license, terms, conditions,
  11:Generated_Source\PSoC6\pdl\drivers/peripheral/sar/cy_sar.h **** * disclaimers, and limitations in the end user license agreement accompanying
  12:Generated_Source\PSoC6\pdl\drivers/peripheral/sar/cy_sar.h **** * the software package with which this file was provided.
  13:Generated_Source\PSoC6\pdl\drivers/peripheral/sar/cy_sar.h **** *******************************************************************************/
  14:Generated_Source\PSoC6\pdl\drivers/peripheral/sar/cy_sar.h **** 
  15:Generated_Source\PSoC6\pdl\drivers/peripheral/sar/cy_sar.h **** /**
  16:Generated_Source\PSoC6\pdl\drivers/peripheral/sar/cy_sar.h **** * \addtogroup group_sar
  17:Generated_Source\PSoC6\pdl\drivers/peripheral/sar/cy_sar.h **** * \{
  18:Generated_Source\PSoC6\pdl\drivers/peripheral/sar/cy_sar.h **** * This driver configures and controls the SAR ADC subsystem block.
  19:Generated_Source\PSoC6\pdl\drivers/peripheral/sar/cy_sar.h **** *
  20:Generated_Source\PSoC6\pdl\drivers/peripheral/sar/cy_sar.h **** * The functions and other declarations used in this driver are in cy_sar.h. 
  21:Generated_Source\PSoC6\pdl\drivers/peripheral/sar/cy_sar.h **** * You can include cy_pdl.h (ModusToolbox only) to get access to all functions 
  22:Generated_Source\PSoC6\pdl\drivers/peripheral/sar/cy_sar.h **** * and declarations in the PDL. 
  23:Generated_Source\PSoC6\pdl\drivers/peripheral/sar/cy_sar.h **** *
  24:Generated_Source\PSoC6\pdl\drivers/peripheral/sar/cy_sar.h **** * This SAR ADC subsystem is comprised of:
  25:Generated_Source\PSoC6\pdl\drivers/peripheral/sar/cy_sar.h **** *   - a 12-bit SAR converter (SARADC)
  26:Generated_Source\PSoC6\pdl\drivers/peripheral/sar/cy_sar.h **** *   - an embedded reference block (SARREF)
  27:Generated_Source\PSoC6\pdl\drivers/peripheral/sar/cy_sar.h **** *   - a mux (\ref group_sar_sarmux "SARMUX") at the inputs of the converter
  28:Generated_Source\PSoC6\pdl\drivers/peripheral/sar/cy_sar.h **** *   - a sequence controller (\ref group_sar_sarmux "SARSEQ") that enables multi-channel acquisition
  29:Generated_Source\PSoC6\pdl\drivers/peripheral/sar/cy_sar.h **** *       in a round robin fashion, without CPU intervention, to maximize scan rates.
  30:Generated_Source\PSoC6\pdl\drivers/peripheral/sar/cy_sar.h **** *
  31:Generated_Source\PSoC6\pdl\drivers/peripheral/sar/cy_sar.h **** * \image html sar_block_diagram.png
  32:Generated_Source\PSoC6\pdl\drivers/peripheral/sar/cy_sar.h **** *
  33:Generated_Source\PSoC6\pdl\drivers/peripheral/sar/cy_sar.h **** * The high level features of the subsystem are:
  34:Generated_Source\PSoC6\pdl\drivers/peripheral/sar/cy_sar.h **** *   - maximum sample rate of 1 Msps
  35:Generated_Source\PSoC6\pdl\drivers/peripheral/sar/cy_sar.h **** *   - Sixteen individually configurable channels (depends on device routing capabilities)
  36:Generated_Source\PSoC6\pdl\drivers/peripheral/sar/cy_sar.h **** *   - per channel selectable
  37:Generated_Source\PSoC6\pdl\drivers/peripheral/sar/cy_sar.h **** *       - single-ended or differential input mode
  38:Generated_Source\PSoC6\pdl\drivers/peripheral/sar/cy_sar.h **** *       - input from external pin (8 channels in single-ended mode or 4 channels in differential mo
  39:Generated_Source\PSoC6\pdl\drivers/peripheral/sar/cy_sar.h **** *         or from internal signals (AMUXBUS, CTB, Die Temperature Sensor)
  40:Generated_Source\PSoC6\pdl\drivers/peripheral/sar/cy_sar.h **** *       - choose one of four programmable acquisition times
  41:Generated_Source\PSoC6\pdl\drivers/peripheral/sar/cy_sar.h **** *       - averaging and accumulation
  42:Generated_Source\PSoC6\pdl\drivers/peripheral/sar/cy_sar.h **** *   - scan can be triggered by firmware or hardware in single shot or continuous mode
  43:Generated_Source\PSoC6\pdl\drivers/peripheral/sar/cy_sar.h **** *   - hardware averaging from 2 to 256 samples
  44:Generated_Source\PSoC6\pdl\drivers/peripheral/sar/cy_sar.h **** *   - selectable voltage references
  45:Generated_Source\PSoC6\pdl\drivers/peripheral/sar/cy_sar.h **** *       - internal VDDA and VDDA/2 references
  46:Generated_Source\PSoC6\pdl\drivers/peripheral/sar/cy_sar.h **** *       - buffered 1.2 V bandgap reference from \ref group_sysanalog "AREF"
  47:Generated_Source\PSoC6\pdl\drivers/peripheral/sar/cy_sar.h **** *       - external reference from dedicated pin
  48:Generated_Source\PSoC6\pdl\drivers/peripheral/sar/cy_sar.h **** *   - Interrupt generation
  49:Generated_Source\PSoC6\pdl\drivers/peripheral/sar/cy_sar.h **** *
  50:Generated_Source\PSoC6\pdl\drivers/peripheral/sar/cy_sar.h **** * \section group_sar_usage Usage
  51:Generated_Source\PSoC6\pdl\drivers/peripheral/sar/cy_sar.h **** *
  52:Generated_Source\PSoC6\pdl\drivers/peripheral/sar/cy_sar.h **** * The high level steps to use this driver are:
  53:Generated_Source\PSoC6\pdl\drivers/peripheral/sar/cy_sar.h **** *
  54:Generated_Source\PSoC6\pdl\drivers/peripheral/sar/cy_sar.h **** *   -# \ref group_sar_initialization
  55:Generated_Source\PSoC6\pdl\drivers/peripheral/sar/cy_sar.h **** *   -# \ref group_sar_trigger_conversions
  56:Generated_Source\PSoC6\pdl\drivers/peripheral/sar/cy_sar.h **** *   -# \ref group_sar_handle_interrupts
  57:Generated_Source\PSoC6\pdl\drivers/peripheral/sar/cy_sar.h **** *   -# \ref group_sar_retrieve_result
  58:Generated_Source\PSoC6\pdl\drivers/peripheral/sar/cy_sar.h **** *
  59:Generated_Source\PSoC6\pdl\drivers/peripheral/sar/cy_sar.h **** * \section group_sar_initialization Initialization and Enable
  60:Generated_Source\PSoC6\pdl\drivers/peripheral/sar/cy_sar.h **** *
  61:Generated_Source\PSoC6\pdl\drivers/peripheral/sar/cy_sar.h **** * To configure the SAR subsystem, call \ref Cy_SAR_Init. Pass in a pointer to the \ref SAR_Type
  62:Generated_Source\PSoC6\pdl\drivers/peripheral/sar/cy_sar.h **** * structure for the base hardware register address and pass in the configuration structure,
  63:Generated_Source\PSoC6\pdl\drivers/peripheral/sar/cy_sar.h **** * \ref cy_stc_sar_config_t.
ARM GAS  C:\Users\zinch\AppData\Local\Temp\ccRcQgKK.s 			page 42


  64:Generated_Source\PSoC6\pdl\drivers/peripheral/sar/cy_sar.h **** *
  65:Generated_Source\PSoC6\pdl\drivers/peripheral/sar/cy_sar.h **** * After initialization, call \ref Cy_SAR_Enable to enable the hardware.
  66:Generated_Source\PSoC6\pdl\drivers/peripheral/sar/cy_sar.h **** *
  67:Generated_Source\PSoC6\pdl\drivers/peripheral/sar/cy_sar.h **** * Here is guidance on how to set the data fields of the configuration structure:
  68:Generated_Source\PSoC6\pdl\drivers/peripheral/sar/cy_sar.h **** *
  69:Generated_Source\PSoC6\pdl\drivers/peripheral/sar/cy_sar.h **** * \subsection group_sar_init_struct_ctrl uint32_t ctrl
  70:Generated_Source\PSoC6\pdl\drivers/peripheral/sar/cy_sar.h **** *
  71:Generated_Source\PSoC6\pdl\drivers/peripheral/sar/cy_sar.h **** * This field specifies configurations that apply to all channels such as the Vref
  72:Generated_Source\PSoC6\pdl\drivers/peripheral/sar/cy_sar.h **** * source or the negative terminal selection for all single-ended channels.
  73:Generated_Source\PSoC6\pdl\drivers/peripheral/sar/cy_sar.h **** * Select a value from each of the following enums that begin with "cy_en_sar_ctrl_" and "OR" them t
  74:Generated_Source\PSoC6\pdl\drivers/peripheral/sar/cy_sar.h **** *   - \ref cy_en_sar_ctrl_pwr_ctrl_vref_t
  75:Generated_Source\PSoC6\pdl\drivers/peripheral/sar/cy_sar.h **** *   - \ref cy_en_sar_ctrl_vref_sel_t
  76:Generated_Source\PSoC6\pdl\drivers/peripheral/sar/cy_sar.h **** *   - \ref cy_en_sar_ctrl_bypass_cap_t
  77:Generated_Source\PSoC6\pdl\drivers/peripheral/sar/cy_sar.h **** *   - \ref cy_en_sar_ctrl_neg_sel_t
  78:Generated_Source\PSoC6\pdl\drivers/peripheral/sar/cy_sar.h **** *   - \ref cy_en_sar_ctrl_hw_ctrl_negvref_t
  79:Generated_Source\PSoC6\pdl\drivers/peripheral/sar/cy_sar.h **** *   - \ref cy_en_sar_ctrl_comp_delay_t
  80:Generated_Source\PSoC6\pdl\drivers/peripheral/sar/cy_sar.h **** *   - \ref cy_en_sar_ctrl_comp_pwr_t
  81:Generated_Source\PSoC6\pdl\drivers/peripheral/sar/cy_sar.h **** *   - \ref cy_en_sar_ctrl_sarmux_deep_sleep_t
  82:Generated_Source\PSoC6\pdl\drivers/peripheral/sar/cy_sar.h **** *   - \ref cy_en_sar_ctrl_sarseq_routing_switches_t
  83:Generated_Source\PSoC6\pdl\drivers/peripheral/sar/cy_sar.h **** *
  84:Generated_Source\PSoC6\pdl\drivers/peripheral/sar/cy_sar.h **** * \snippet sar_sut_01.cydsn/main_cm0p.c SNIPPET_SAR_SAR_CTRL
  85:Generated_Source\PSoC6\pdl\drivers/peripheral/sar/cy_sar.h **** *
  86:Generated_Source\PSoC6\pdl\drivers/peripheral/sar/cy_sar.h **** * \subsection group_sar_init_struct_sampleCtrl uint32_t sampleCtrl
  87:Generated_Source\PSoC6\pdl\drivers/peripheral/sar/cy_sar.h **** *
  88:Generated_Source\PSoC6\pdl\drivers/peripheral/sar/cy_sar.h **** * This field configures sampling details that apply to all channels.
  89:Generated_Source\PSoC6\pdl\drivers/peripheral/sar/cy_sar.h **** * Select a value from each of the following enums that begin with "cy_en_sar_sample_" and "OR" them
  90:Generated_Source\PSoC6\pdl\drivers/peripheral/sar/cy_sar.h **** *   - \ref cy_en_sar_sample_ctrl_result_align_t
  91:Generated_Source\PSoC6\pdl\drivers/peripheral/sar/cy_sar.h **** *   - \ref cy_en_sar_sample_ctrl_single_ended_format_t
  92:Generated_Source\PSoC6\pdl\drivers/peripheral/sar/cy_sar.h **** *   - \ref cy_en_sar_sample_ctrl_differential_format_t
  93:Generated_Source\PSoC6\pdl\drivers/peripheral/sar/cy_sar.h **** *   - \ref cy_en_sar_sample_ctrl_avg_cnt_t
  94:Generated_Source\PSoC6\pdl\drivers/peripheral/sar/cy_sar.h **** *   - \ref cy_en_sar_sample_ctrl_avg_mode_t
  95:Generated_Source\PSoC6\pdl\drivers/peripheral/sar/cy_sar.h **** *   - \ref cy_en_sar_sample_ctrl_trigger_mode_t
  96:Generated_Source\PSoC6\pdl\drivers/peripheral/sar/cy_sar.h **** *
  97:Generated_Source\PSoC6\pdl\drivers/peripheral/sar/cy_sar.h **** * \snippet sar_sut_01.cydsn/main_cm0p.c SNIPPET_SAR_SAMPLE_CTRL
  98:Generated_Source\PSoC6\pdl\drivers/peripheral/sar/cy_sar.h **** *
  99:Generated_Source\PSoC6\pdl\drivers/peripheral/sar/cy_sar.h **** * \subsection group_sar_init_struct_sampleTime01 uint32_t sampleTime01
 100:Generated_Source\PSoC6\pdl\drivers/peripheral/sar/cy_sar.h **** *
 101:Generated_Source\PSoC6\pdl\drivers/peripheral/sar/cy_sar.h **** * This field configures the value for sample times 0 and 1 in ADC clock cycles.
 102:Generated_Source\PSoC6\pdl\drivers/peripheral/sar/cy_sar.h **** *
 103:Generated_Source\PSoC6\pdl\drivers/peripheral/sar/cy_sar.h **** * The SAR has four programmable 10-bit aperture times that are configured using two data fields,
 104:Generated_Source\PSoC6\pdl\drivers/peripheral/sar/cy_sar.h **** * \ref group_sar_init_struct_sampleTime01 and
 105:Generated_Source\PSoC6\pdl\drivers/peripheral/sar/cy_sar.h **** * \ref group_sar_init_struct_sampleTime23.
 106:Generated_Source\PSoC6\pdl\drivers/peripheral/sar/cy_sar.h **** * Ten bits allow for a range of 0 to 1023 cycles, however 0 and 1 are invalid.
 107:Generated_Source\PSoC6\pdl\drivers/peripheral/sar/cy_sar.h **** * The minimum aperture time is 167 ns. With an 18 MHz ADC clock, this is
 108:Generated_Source\PSoC6\pdl\drivers/peripheral/sar/cy_sar.h **** * equal to 3 cycles or a value of 4 in this field. The actual aperture time is one cycle less than
 109:Generated_Source\PSoC6\pdl\drivers/peripheral/sar/cy_sar.h **** * the value stored in this field.
 110:Generated_Source\PSoC6\pdl\drivers/peripheral/sar/cy_sar.h **** *
 111:Generated_Source\PSoC6\pdl\drivers/peripheral/sar/cy_sar.h **** * Use the shifts defined in \ref cy_en_sar_sample_time_shift_t.
 112:Generated_Source\PSoC6\pdl\drivers/peripheral/sar/cy_sar.h **** *
 113:Generated_Source\PSoC6\pdl\drivers/peripheral/sar/cy_sar.h **** * \snippet sar_sut_01.cydsn/main_cm0p.c SNIPPET_SAR_SAMPLE_TIME01
 114:Generated_Source\PSoC6\pdl\drivers/peripheral/sar/cy_sar.h **** *
 115:Generated_Source\PSoC6\pdl\drivers/peripheral/sar/cy_sar.h **** * \subsection group_sar_init_struct_sampleTime23 uint32_t sampleTime23
 116:Generated_Source\PSoC6\pdl\drivers/peripheral/sar/cy_sar.h **** *
 117:Generated_Source\PSoC6\pdl\drivers/peripheral/sar/cy_sar.h **** * This field configures the value for sample times 2 and 3 in ADC clock cycles.
 118:Generated_Source\PSoC6\pdl\drivers/peripheral/sar/cy_sar.h **** * Use the shifts defined in \ref cy_en_sar_sample_time_shift_t.
 119:Generated_Source\PSoC6\pdl\drivers/peripheral/sar/cy_sar.h **** *
 120:Generated_Source\PSoC6\pdl\drivers/peripheral/sar/cy_sar.h **** * \snippet sar_sut_01.cydsn/main_cm0p.c SNIPPET_SAR_SAMPLE_TIME23
ARM GAS  C:\Users\zinch\AppData\Local\Temp\ccRcQgKK.s 			page 43


 121:Generated_Source\PSoC6\pdl\drivers/peripheral/sar/cy_sar.h **** *
 122:Generated_Source\PSoC6\pdl\drivers/peripheral/sar/cy_sar.h **** * \subsection group_sar_init_struct_rangeThres uint32_t rangeThres
 123:Generated_Source\PSoC6\pdl\drivers/peripheral/sar/cy_sar.h **** *
 124:Generated_Source\PSoC6\pdl\drivers/peripheral/sar/cy_sar.h **** * This field configures the upper and lower thresholds for the range interrupt.
 125:Generated_Source\PSoC6\pdl\drivers/peripheral/sar/cy_sar.h **** * These thresholds apply on a global level for all channels with range detection enabled.
 126:Generated_Source\PSoC6\pdl\drivers/peripheral/sar/cy_sar.h **** *
 127:Generated_Source\PSoC6\pdl\drivers/peripheral/sar/cy_sar.h **** * The SARSEQ supports range detection to allow for automatic detection of sample values
 128:Generated_Source\PSoC6\pdl\drivers/peripheral/sar/cy_sar.h **** * compared to two programmable thresholds without CPU involvement.
 129:Generated_Source\PSoC6\pdl\drivers/peripheral/sar/cy_sar.h **** * Range detection is done after averaging, alignment, and sign extension (if applicable). In other 
 130:Generated_Source\PSoC6\pdl\drivers/peripheral/sar/cy_sar.h **** * threshold values need to have the same data format as the result data.
 131:Generated_Source\PSoC6\pdl\drivers/peripheral/sar/cy_sar.h **** * The values are interpreted as signed or unsigned according to each channel's configuration.
 132:Generated_Source\PSoC6\pdl\drivers/peripheral/sar/cy_sar.h **** *
 133:Generated_Source\PSoC6\pdl\drivers/peripheral/sar/cy_sar.h **** * Use the shifts defined in \ref cy_en_sar_range_thres_shift_t.
 134:Generated_Source\PSoC6\pdl\drivers/peripheral/sar/cy_sar.h **** *
 135:Generated_Source\PSoC6\pdl\drivers/peripheral/sar/cy_sar.h **** * The \ref Cy_SAR_SetLowLimit and \ref Cy_SAR_SetHighLimit provide run-time configurability of thes
 136:Generated_Source\PSoC6\pdl\drivers/peripheral/sar/cy_sar.h **** *
 137:Generated_Source\PSoC6\pdl\drivers/peripheral/sar/cy_sar.h **** * \snippet sar_sut_01.cydsn/main_cm0p.c SNIPPET_SAR_RANGE_THRES
 138:Generated_Source\PSoC6\pdl\drivers/peripheral/sar/cy_sar.h **** *
 139:Generated_Source\PSoC6\pdl\drivers/peripheral/sar/cy_sar.h **** * \subsection group_sar_init_struct_rangeCond cy_en_sar_range_detect_condition_t rangeCond
 140:Generated_Source\PSoC6\pdl\drivers/peripheral/sar/cy_sar.h **** *
 141:Generated_Source\PSoC6\pdl\drivers/peripheral/sar/cy_sar.h **** * This field configures the condition (below, inside, outside, or above) that will trigger
 142:Generated_Source\PSoC6\pdl\drivers/peripheral/sar/cy_sar.h **** * the range interrupt. Select a value from the \ref cy_en_sar_range_detect_condition_t enum.
 143:Generated_Source\PSoC6\pdl\drivers/peripheral/sar/cy_sar.h **** *
 144:Generated_Source\PSoC6\pdl\drivers/peripheral/sar/cy_sar.h **** * \subsection group_sar_init_struct_chanEn uint32_t chanEn
 145:Generated_Source\PSoC6\pdl\drivers/peripheral/sar/cy_sar.h **** *
 146:Generated_Source\PSoC6\pdl\drivers/peripheral/sar/cy_sar.h **** * This field configures which channels will be scanned.
 147:Generated_Source\PSoC6\pdl\drivers/peripheral/sar/cy_sar.h **** * Each bit corresponds to a channel. Bit 0 enables channel 0, bit 1 enables channel 1,
 148:Generated_Source\PSoC6\pdl\drivers/peripheral/sar/cy_sar.h **** * bit 2 enables channel 2, and so on.
 149:Generated_Source\PSoC6\pdl\drivers/peripheral/sar/cy_sar.h **** *
 150:Generated_Source\PSoC6\pdl\drivers/peripheral/sar/cy_sar.h **** * \subsection group_sar_init_struct_chanConfig uint32_t chanConfig[16]
 151:Generated_Source\PSoC6\pdl\drivers/peripheral/sar/cy_sar.h **** *
 152:Generated_Source\PSoC6\pdl\drivers/peripheral/sar/cy_sar.h **** * Each channel has its own channel configuration register.
 153:Generated_Source\PSoC6\pdl\drivers/peripheral/sar/cy_sar.h **** * The channel configuration specifies which pin/signal is connected to that channel
 154:Generated_Source\PSoC6\pdl\drivers/peripheral/sar/cy_sar.h **** * and how the channel is sampled.
 155:Generated_Source\PSoC6\pdl\drivers/peripheral/sar/cy_sar.h **** *
 156:Generated_Source\PSoC6\pdl\drivers/peripheral/sar/cy_sar.h **** * Select a value from each of the following enums that begin with "cy_en_sar_chan_config_" and "OR"
 157:Generated_Source\PSoC6\pdl\drivers/peripheral/sar/cy_sar.h **** *
 158:Generated_Source\PSoC6\pdl\drivers/peripheral/sar/cy_sar.h **** *   - \ref cy_en_sar_chan_config_input_mode_t
 159:Generated_Source\PSoC6\pdl\drivers/peripheral/sar/cy_sar.h **** *   - \ref cy_en_sar_chan_config_pos_pin_addr_t
 160:Generated_Source\PSoC6\pdl\drivers/peripheral/sar/cy_sar.h **** *   - \ref cy_en_sar_chan_config_pos_port_addr_t
 161:Generated_Source\PSoC6\pdl\drivers/peripheral/sar/cy_sar.h **** *   - \ref cy_en_sar_chan_config_avg_en_t
 162:Generated_Source\PSoC6\pdl\drivers/peripheral/sar/cy_sar.h **** *   - \ref cy_en_sar_chan_config_sample_time_t
 163:Generated_Source\PSoC6\pdl\drivers/peripheral/sar/cy_sar.h **** *   - \ref cy_en_sar_chan_config_neg_pin_addr_t
 164:Generated_Source\PSoC6\pdl\drivers/peripheral/sar/cy_sar.h **** *   - \ref cy_en_sar_chan_config_neg_port_addr_t
 165:Generated_Source\PSoC6\pdl\drivers/peripheral/sar/cy_sar.h **** *
 166:Generated_Source\PSoC6\pdl\drivers/peripheral/sar/cy_sar.h **** * Some important considerations are:
 167:Generated_Source\PSoC6\pdl\drivers/peripheral/sar/cy_sar.h **** *   - The POS_PORT_ADDR and POS_PIN_ADDR bit fields are used by the SARSEQ to select
 168:Generated_Source\PSoC6\pdl\drivers/peripheral/sar/cy_sar.h **** *   the connection to the positive terminal (Vplus) of the ADC for each channel.
 169:Generated_Source\PSoC6\pdl\drivers/peripheral/sar/cy_sar.h **** *   - When the channel is an unpaired differential input (\ref CY_SAR_CHAN_DIFFERENTIAL_UNPAIRED), 
 170:Generated_Source\PSoC6\pdl\drivers/peripheral/sar/cy_sar.h **** *   NEG_PORT_ADDR and NEG_PIN_ADDR are used by the SARSEQ to select the connection
 171:Generated_Source\PSoC6\pdl\drivers/peripheral/sar/cy_sar.h **** *   to the negative terminal (Vminus) of the ADC.
 172:Generated_Source\PSoC6\pdl\drivers/peripheral/sar/cy_sar.h **** *   - When the channel is a differential input pair (\ref CY_SAR_CHAN_DIFFERENTIAL_PAIRED), the NEG
 173:Generated_Source\PSoC6\pdl\drivers/peripheral/sar/cy_sar.h **** *   For differential input pairs, only the pin for the positive terminal needs to be
 174:Generated_Source\PSoC6\pdl\drivers/peripheral/sar/cy_sar.h **** *   specified and this pin must be even. For example, Pin 0 (positive terminal) and Pin 1 (negative
 175:Generated_Source\PSoC6\pdl\drivers/peripheral/sar/cy_sar.h **** *   are a pair. Pin 2 (positive terminal) and Pin 3 (negative terminal) are a pair.
 176:Generated_Source\PSoC6\pdl\drivers/peripheral/sar/cy_sar.h **** *
 177:Generated_Source\PSoC6\pdl\drivers/peripheral/sar/cy_sar.h **** * If the SARSEQ is disabled (\ref cy_en_sar_ctrl_sarseq_routing_switches_t) or
ARM GAS  C:\Users\zinch\AppData\Local\Temp\ccRcQgKK.s 			page 44


 178:Generated_Source\PSoC6\pdl\drivers/peripheral/sar/cy_sar.h **** * it is not controlling any switches (\ref group_sar_init_struct_muxSwitchSqCtrl = 0), the port and
 179:Generated_Source\PSoC6\pdl\drivers/peripheral/sar/cy_sar.h **** * are ignored. This is possible when there is only one channel to scan.
 180:Generated_Source\PSoC6\pdl\drivers/peripheral/sar/cy_sar.h **** *
 181:Generated_Source\PSoC6\pdl\drivers/peripheral/sar/cy_sar.h **** * \snippet sar_sut_01.cydsn/main_cm0p.c SNIPPET_SAR_CHAN_CONFIG
 182:Generated_Source\PSoC6\pdl\drivers/peripheral/sar/cy_sar.h **** *
 183:Generated_Source\PSoC6\pdl\drivers/peripheral/sar/cy_sar.h **** * \subsection group_sar_init_struct_intrMask uint32_t intrMask
 184:Generated_Source\PSoC6\pdl\drivers/peripheral/sar/cy_sar.h **** *
 185:Generated_Source\PSoC6\pdl\drivers/peripheral/sar/cy_sar.h **** * This field configures which interrupt events (end of scan, overflow, or firmware collision) will 
 186:Generated_Source\PSoC6\pdl\drivers/peripheral/sar/cy_sar.h **** *
 187:Generated_Source\PSoC6\pdl\drivers/peripheral/sar/cy_sar.h **** * Select one or more values from the \ref cy_en_sar_intr_mask_t enum and "OR" them
 188:Generated_Source\PSoC6\pdl\drivers/peripheral/sar/cy_sar.h **** * together.
 189:Generated_Source\PSoC6\pdl\drivers/peripheral/sar/cy_sar.h **** *
 190:Generated_Source\PSoC6\pdl\drivers/peripheral/sar/cy_sar.h **** * \snippet sar_sut_01.cydsn/main_cm0p.c SNIPPET_SAR_INTR_MASK
 191:Generated_Source\PSoC6\pdl\drivers/peripheral/sar/cy_sar.h **** *
 192:Generated_Source\PSoC6\pdl\drivers/peripheral/sar/cy_sar.h **** * \subsection group_sar_init_struct_satIntrMask uint32_t satIntrMask
 193:Generated_Source\PSoC6\pdl\drivers/peripheral/sar/cy_sar.h **** *
 194:Generated_Source\PSoC6\pdl\drivers/peripheral/sar/cy_sar.h **** * This field configures which channels will cause a saturation interrupt.
 195:Generated_Source\PSoC6\pdl\drivers/peripheral/sar/cy_sar.h **** *
 196:Generated_Source\PSoC6\pdl\drivers/peripheral/sar/cy_sar.h **** * The SARSEQ has a saturation detect that is always applied to every conversion.
 197:Generated_Source\PSoC6\pdl\drivers/peripheral/sar/cy_sar.h **** * This feature detects whether a channel's sample value is equal to the minimum or maximum values.
 198:Generated_Source\PSoC6\pdl\drivers/peripheral/sar/cy_sar.h **** * This allows the firmware to take action, for example, discard the result, when the SARADC saturat
 199:Generated_Source\PSoC6\pdl\drivers/peripheral/sar/cy_sar.h **** * The sample value is tested right after conversion, that is, before averaging. This means that it
 200:Generated_Source\PSoC6\pdl\drivers/peripheral/sar/cy_sar.h **** * can happen that the interrupt is set while the averaged result in the data register is not
 201:Generated_Source\PSoC6\pdl\drivers/peripheral/sar/cy_sar.h **** * equal to the minimum or maximum.
 202:Generated_Source\PSoC6\pdl\drivers/peripheral/sar/cy_sar.h **** *
 203:Generated_Source\PSoC6\pdl\drivers/peripheral/sar/cy_sar.h **** * Each bit corresponds to a channel. A value of 0 disables saturation detection for all channels.
 204:Generated_Source\PSoC6\pdl\drivers/peripheral/sar/cy_sar.h **** *
 205:Generated_Source\PSoC6\pdl\drivers/peripheral/sar/cy_sar.h **** * \subsection group_sar_init_struct_rangeIntrMask uint32_t rangeIntrMask
 206:Generated_Source\PSoC6\pdl\drivers/peripheral/sar/cy_sar.h **** *
 207:Generated_Source\PSoC6\pdl\drivers/peripheral/sar/cy_sar.h **** * This field configures which channels will cause a range detection interrupt.
 208:Generated_Source\PSoC6\pdl\drivers/peripheral/sar/cy_sar.h **** * Each bit corresponds to a channel. A value of 0 disables range detection for all channels.
 209:Generated_Source\PSoC6\pdl\drivers/peripheral/sar/cy_sar.h **** *
 210:Generated_Source\PSoC6\pdl\drivers/peripheral/sar/cy_sar.h **** * \subsection group_sar_init_struct_muxSwitch uint32_t muxSwitch
 211:Generated_Source\PSoC6\pdl\drivers/peripheral/sar/cy_sar.h **** *
 212:Generated_Source\PSoC6\pdl\drivers/peripheral/sar/cy_sar.h **** * This field is the firmware control of the SARMUX switches.
 213:Generated_Source\PSoC6\pdl\drivers/peripheral/sar/cy_sar.h **** *
 214:Generated_Source\PSoC6\pdl\drivers/peripheral/sar/cy_sar.h **** * Use one or more values from the \ref cy_en_sar_mux_switch_fw_ctrl_t enum and "OR" them together.
 215:Generated_Source\PSoC6\pdl\drivers/peripheral/sar/cy_sar.h **** * If the SARSEQ is enabled, the SARMUX switches that will be used must
 216:Generated_Source\PSoC6\pdl\drivers/peripheral/sar/cy_sar.h **** * also be closed using this firmware control.
 217:Generated_Source\PSoC6\pdl\drivers/peripheral/sar/cy_sar.h **** *
 218:Generated_Source\PSoC6\pdl\drivers/peripheral/sar/cy_sar.h **** * \snippet sar_sut_01.cydsn/main_cm0p.c SNIPPET_SAR_MUX_SWITCH
 219:Generated_Source\PSoC6\pdl\drivers/peripheral/sar/cy_sar.h **** *
 220:Generated_Source\PSoC6\pdl\drivers/peripheral/sar/cy_sar.h **** * Firmware control can be changed at run-time by calling \ref Cy_SAR_SetAnalogSwitch with \ref CY_S
 221:Generated_Source\PSoC6\pdl\drivers/peripheral/sar/cy_sar.h **** * and the desired switch states.
 222:Generated_Source\PSoC6\pdl\drivers/peripheral/sar/cy_sar.h **** *
 223:Generated_Source\PSoC6\pdl\drivers/peripheral/sar/cy_sar.h **** * \subsection group_sar_init_struct_muxSwitchSqCtrl uint32_t muxSwitchSqCtrl
 224:Generated_Source\PSoC6\pdl\drivers/peripheral/sar/cy_sar.h **** *
 225:Generated_Source\PSoC6\pdl\drivers/peripheral/sar/cy_sar.h **** * This field enables or disables SARSEQ control of the SARMUX switches.
 226:Generated_Source\PSoC6\pdl\drivers/peripheral/sar/cy_sar.h **** * To disable control of all switches, set this field to 0. To disable the SARSEQ all together,
 227:Generated_Source\PSoC6\pdl\drivers/peripheral/sar/cy_sar.h **** * use \ref CY_SAR_SARSEQ_SWITCH_DISABLE when configuring the \ref group_sar_init_struct_ctrl regist
 228:Generated_Source\PSoC6\pdl\drivers/peripheral/sar/cy_sar.h **** *
 229:Generated_Source\PSoC6\pdl\drivers/peripheral/sar/cy_sar.h **** * Use one or more values from the \ref cy_en_sar_mux_switch_sq_ctrl_t enum and "OR" them together.
 230:Generated_Source\PSoC6\pdl\drivers/peripheral/sar/cy_sar.h **** *
 231:Generated_Source\PSoC6\pdl\drivers/peripheral/sar/cy_sar.h **** * \snippet sar_sut_01.cydsn/main_cm0p.c SNIPPET_SAR_MUX_SQ_CTRL
 232:Generated_Source\PSoC6\pdl\drivers/peripheral/sar/cy_sar.h **** *
 233:Generated_Source\PSoC6\pdl\drivers/peripheral/sar/cy_sar.h **** * SARSEQ control can be changed at run-time by calling \ref Cy_SAR_SetSwitchSarSeqCtrl.
 234:Generated_Source\PSoC6\pdl\drivers/peripheral/sar/cy_sar.h **** *
ARM GAS  C:\Users\zinch\AppData\Local\Temp\ccRcQgKK.s 			page 45


 235:Generated_Source\PSoC6\pdl\drivers/peripheral/sar/cy_sar.h **** * \subsection group_sar_init_struct_configRouting bool configRouting
 236:Generated_Source\PSoC6\pdl\drivers/peripheral/sar/cy_sar.h **** *
 237:Generated_Source\PSoC6\pdl\drivers/peripheral/sar/cy_sar.h **** * If true, the \ref group_sar_init_struct_muxSwitch and \ref group_sar_init_struct_muxSwitchSqCtrl 
 238:Generated_Source\PSoC6\pdl\drivers/peripheral/sar/cy_sar.h **** * will be used. If false, the fields will be ignored.
 239:Generated_Source\PSoC6\pdl\drivers/peripheral/sar/cy_sar.h **** *
 240:Generated_Source\PSoC6\pdl\drivers/peripheral/sar/cy_sar.h **** * \subsection group_sar_init_struct_vrefMvValue uint32_t vrefMvValue
 241:Generated_Source\PSoC6\pdl\drivers/peripheral/sar/cy_sar.h **** *
 242:Generated_Source\PSoC6\pdl\drivers/peripheral/sar/cy_sar.h **** * This field sets the value of the reference voltage in millivolts used. This value
 243:Generated_Source\PSoC6\pdl\drivers/peripheral/sar/cy_sar.h **** * is used for converting counts to volts in the \ref Cy_SAR_CountsTo_Volts, \ref Cy_SAR_CountsTo_mV
 244:Generated_Source\PSoC6\pdl\drivers/peripheral/sar/cy_sar.h **** * \ref Cy_SAR_CountsTo_uVolts functions.
 245:Generated_Source\PSoC6\pdl\drivers/peripheral/sar/cy_sar.h **** *
 246:Generated_Source\PSoC6\pdl\drivers/peripheral/sar/cy_sar.h **** * \section group_sar_trigger_conversions Triggering Conversions
 247:Generated_Source\PSoC6\pdl\drivers/peripheral/sar/cy_sar.h **** *
 248:Generated_Source\PSoC6\pdl\drivers/peripheral/sar/cy_sar.h **** * The SAR subsystem has the following modes for triggering a conversion:
 249:Generated_Source\PSoC6\pdl\drivers/peripheral/sar/cy_sar.h **** * <table class="doxtable">
 250:Generated_Source\PSoC6\pdl\drivers/peripheral/sar/cy_sar.h **** *   <tr>
 251:Generated_Source\PSoC6\pdl\drivers/peripheral/sar/cy_sar.h **** *     <th>Mode</th>
 252:Generated_Source\PSoC6\pdl\drivers/peripheral/sar/cy_sar.h **** *     <th>Description</th>
 253:Generated_Source\PSoC6\pdl\drivers/peripheral/sar/cy_sar.h **** *     <th>Usage</th>
 254:Generated_Source\PSoC6\pdl\drivers/peripheral/sar/cy_sar.h **** *   </tr>
 255:Generated_Source\PSoC6\pdl\drivers/peripheral/sar/cy_sar.h **** *   <tr>
 256:Generated_Source\PSoC6\pdl\drivers/peripheral/sar/cy_sar.h **** *     <td>Continuous</td>
 257:Generated_Source\PSoC6\pdl\drivers/peripheral/sar/cy_sar.h **** *     <td>After completing a scan, the
 258:Generated_Source\PSoC6\pdl\drivers/peripheral/sar/cy_sar.h **** *     SARSEQ will immediately start the next scan. That is, the SARSEQ will always be BUSY.
 259:Generated_Source\PSoC6\pdl\drivers/peripheral/sar/cy_sar.h **** *     As a result all other triggers, firmware or hardware, are essentially ignored.
 260:Generated_Source\PSoC6\pdl\drivers/peripheral/sar/cy_sar.h **** *  </td>
 261:Generated_Source\PSoC6\pdl\drivers/peripheral/sar/cy_sar.h **** *     <td>To enter this mode, call \ref Cy_SAR_StartConvert with \ref CY_SAR_START_CONVERT_CONTINUO
 262:Generated_Source\PSoC6\pdl\drivers/peripheral/sar/cy_sar.h **** *     To stop continuous conversions, call \ref Cy_SAR_StopConvert.
 263:Generated_Source\PSoC6\pdl\drivers/peripheral/sar/cy_sar.h **** *     </td>
 264:Generated_Source\PSoC6\pdl\drivers/peripheral/sar/cy_sar.h **** *   </tr>
 265:Generated_Source\PSoC6\pdl\drivers/peripheral/sar/cy_sar.h **** *   <tr>
 266:Generated_Source\PSoC6\pdl\drivers/peripheral/sar/cy_sar.h **** *     <td>Firmware single shot</td>
 267:Generated_Source\PSoC6\pdl\drivers/peripheral/sar/cy_sar.h **** *     <td>A single conversion of all enabled channels is triggered with a function call to \ref Cy_
 268:Generated_Source\PSoC6\pdl\drivers/peripheral/sar/cy_sar.h **** *     \ref CY_SAR_START_CONVERT_SINGLE_SHOT.
 269:Generated_Source\PSoC6\pdl\drivers/peripheral/sar/cy_sar.h **** *     </td>
 270:Generated_Source\PSoC6\pdl\drivers/peripheral/sar/cy_sar.h **** *     <td>
 271:Generated_Source\PSoC6\pdl\drivers/peripheral/sar/cy_sar.h **** *     Firmware triggering is always available by calling \ref Cy_SAR_StartConvert with \ref CY_SAR_
 272:Generated_Source\PSoC6\pdl\drivers/peripheral/sar/cy_sar.h **** *     To allow only firmware triggering, or disable
 273:Generated_Source\PSoC6\pdl\drivers/peripheral/sar/cy_sar.h **** *     hardware triggering, set up the \ref cy_stc_sar_config_t config structure with \ref CY_SAR_TR
 274:Generated_Source\PSoC6\pdl\drivers/peripheral/sar/cy_sar.h **** *     </td>
 275:Generated_Source\PSoC6\pdl\drivers/peripheral/sar/cy_sar.h **** *   </tr>
 276:Generated_Source\PSoC6\pdl\drivers/peripheral/sar/cy_sar.h **** *   <tr>
 277:Generated_Source\PSoC6\pdl\drivers/peripheral/sar/cy_sar.h **** *     <td>Hardware edge sensitive</td>
 278:Generated_Source\PSoC6\pdl\drivers/peripheral/sar/cy_sar.h **** *     <td>A single conversion of all enabled channels is triggered on the rising edge of the hardwa
 279:Generated_Source\PSoC6\pdl\drivers/peripheral/sar/cy_sar.h **** *     trigger signal.</td>
 280:Generated_Source\PSoC6\pdl\drivers/peripheral/sar/cy_sar.h **** *     <td>To enable this mode, set up the \ref cy_stc_sar_config_t config structure with
 281:Generated_Source\PSoC6\pdl\drivers/peripheral/sar/cy_sar.h **** *     \ref CY_SAR_TRIGGER_MODE_FW_AND_HWEDGE.</td>
 282:Generated_Source\PSoC6\pdl\drivers/peripheral/sar/cy_sar.h **** *    </tr>
 283:Generated_Source\PSoC6\pdl\drivers/peripheral/sar/cy_sar.h **** *    <tr>
 284:Generated_Source\PSoC6\pdl\drivers/peripheral/sar/cy_sar.h **** *     <td>Hardware level sensitive</td>
 285:Generated_Source\PSoC6\pdl\drivers/peripheral/sar/cy_sar.h **** *     <td>Conversions are triggered continuously when the hardware trigger signal is high.</td>
 286:Generated_Source\PSoC6\pdl\drivers/peripheral/sar/cy_sar.h **** *     <td>To enable this mode, set up the \ref cy_stc_sar_config_t config structure with
 287:Generated_Source\PSoC6\pdl\drivers/peripheral/sar/cy_sar.h **** *     \ref CY_SAR_TRIGGER_MODE_FW_AND_HWLEVEL.</td>
 288:Generated_Source\PSoC6\pdl\drivers/peripheral/sar/cy_sar.h **** *    </tr>
 289:Generated_Source\PSoC6\pdl\drivers/peripheral/sar/cy_sar.h **** * </table>
 290:Generated_Source\PSoC6\pdl\drivers/peripheral/sar/cy_sar.h **** *
 291:Generated_Source\PSoC6\pdl\drivers/peripheral/sar/cy_sar.h **** * The trigger mode can be changed during run time with \ref Cy_SAR_SetConvertMode.
ARM GAS  C:\Users\zinch\AppData\Local\Temp\ccRcQgKK.s 			page 46


 292:Generated_Source\PSoC6\pdl\drivers/peripheral/sar/cy_sar.h **** *
 293:Generated_Source\PSoC6\pdl\drivers/peripheral/sar/cy_sar.h **** * For the hardware trigger modes, use the \ref group_trigmux driver to route an internal or externa
 294:Generated_Source\PSoC6\pdl\drivers/peripheral/sar/cy_sar.h **** * signal to the SAR trigger input.
 295:Generated_Source\PSoC6\pdl\drivers/peripheral/sar/cy_sar.h **** * When making the required \ref Cy_TrigMux_Connect calls, use the pre-defined enum, TRIG6_OUT_PASS_
 296:Generated_Source\PSoC6\pdl\drivers/peripheral/sar/cy_sar.h **** * for the SAR trigger input.
 297:Generated_Source\PSoC6\pdl\drivers/peripheral/sar/cy_sar.h **** *
 298:Generated_Source\PSoC6\pdl\drivers/peripheral/sar/cy_sar.h **** * \snippet sar_sut_01.cydsn/main_cm0p.c SNIPPET_SAR_CONFIG_TRIGGER
 299:Generated_Source\PSoC6\pdl\drivers/peripheral/sar/cy_sar.h **** *
 300:Generated_Source\PSoC6\pdl\drivers/peripheral/sar/cy_sar.h **** * \section group_sar_handle_interrupts Handling Interrupts
 301:Generated_Source\PSoC6\pdl\drivers/peripheral/sar/cy_sar.h **** *
 302:Generated_Source\PSoC6\pdl\drivers/peripheral/sar/cy_sar.h **** * The SAR can generate interrupts on these events:
 303:Generated_Source\PSoC6\pdl\drivers/peripheral/sar/cy_sar.h **** *
 304:Generated_Source\PSoC6\pdl\drivers/peripheral/sar/cy_sar.h **** *   - End of scan (EOS): when scanning of all enabled channels complete.
 305:Generated_Source\PSoC6\pdl\drivers/peripheral/sar/cy_sar.h **** *   - Overflow: when the result register is updated before the previous result is read.
 306:Generated_Source\PSoC6\pdl\drivers/peripheral/sar/cy_sar.h **** *   - FW collision: when a new trigger is received while the SAR is still processing the previous t
 307:Generated_Source\PSoC6\pdl\drivers/peripheral/sar/cy_sar.h **** *   - Saturation detection: when the channel result is equal to the minimum or maximum value.
 308:Generated_Source\PSoC6\pdl\drivers/peripheral/sar/cy_sar.h **** *   - Range detection: when the channel result meets the programmed upper or lower threshold values
 309:Generated_Source\PSoC6\pdl\drivers/peripheral/sar/cy_sar.h **** *
 310:Generated_Source\PSoC6\pdl\drivers/peripheral/sar/cy_sar.h **** * The SAR interrupt to the NVIC is raised any time the intersection (logic and) of the interrupt
 311:Generated_Source\PSoC6\pdl\drivers/peripheral/sar/cy_sar.h **** * flags and the corresponding interrupt masks are non-zero.
 312:Generated_Source\PSoC6\pdl\drivers/peripheral/sar/cy_sar.h **** *
 313:Generated_Source\PSoC6\pdl\drivers/peripheral/sar/cy_sar.h **** * Implement an interrupt routine and assign it to the SAR interrupt.
 314:Generated_Source\PSoC6\pdl\drivers/peripheral/sar/cy_sar.h **** * Use the pre-defined enum, pass_interrupt_sar_IRQn, as the interrupt source for the SAR.
 315:Generated_Source\PSoC6\pdl\drivers/peripheral/sar/cy_sar.h **** *
 316:Generated_Source\PSoC6\pdl\drivers/peripheral/sar/cy_sar.h **** * The following code snippet demonstrates how to implement a routine to handle the interrupt.
 317:Generated_Source\PSoC6\pdl\drivers/peripheral/sar/cy_sar.h **** * The routine gets called when any one of the SAR interrupts are triggered.
 318:Generated_Source\PSoC6\pdl\drivers/peripheral/sar/cy_sar.h **** * When servicing an interrupt, the user must clear the interrupt so that subsequent
 319:Generated_Source\PSoC6\pdl\drivers/peripheral/sar/cy_sar.h **** * interrupts can be handled.
 320:Generated_Source\PSoC6\pdl\drivers/peripheral/sar/cy_sar.h **** *
 321:Generated_Source\PSoC6\pdl\drivers/peripheral/sar/cy_sar.h **** * \snippet sar_sut_01.cydsn/main_cm0p.c SNIPPET_SAR_ISR
 322:Generated_Source\PSoC6\pdl\drivers/peripheral/sar/cy_sar.h **** *
 323:Generated_Source\PSoC6\pdl\drivers/peripheral/sar/cy_sar.h **** * The following code snippet demonstrates how to configure and enable the interrupt.
 324:Generated_Source\PSoC6\pdl\drivers/peripheral/sar/cy_sar.h **** *
 325:Generated_Source\PSoC6\pdl\drivers/peripheral/sar/cy_sar.h **** * \snippet sar_sut_01.cydsn/main_cm0p.c SNIPPET_SAR_CONFIG_INTR
 326:Generated_Source\PSoC6\pdl\drivers/peripheral/sar/cy_sar.h **** *
 327:Generated_Source\PSoC6\pdl\drivers/peripheral/sar/cy_sar.h **** * Alternately, instead of handling the interrupts, the \ref Cy_SAR_IsEndConversion function
 328:Generated_Source\PSoC6\pdl\drivers/peripheral/sar/cy_sar.h **** * allows for firmware polling of the end of conversion status.
 329:Generated_Source\PSoC6\pdl\drivers/peripheral/sar/cy_sar.h **** *
 330:Generated_Source\PSoC6\pdl\drivers/peripheral/sar/cy_sar.h **** * \section group_sar_retrieve_result Retrieve Channel Results
 331:Generated_Source\PSoC6\pdl\drivers/peripheral/sar/cy_sar.h **** *
 332:Generated_Source\PSoC6\pdl\drivers/peripheral/sar/cy_sar.h **** * Retrieve the ADC result by calling \ref Cy_SAR_GetResult16 with the desired channel.
 333:Generated_Source\PSoC6\pdl\drivers/peripheral/sar/cy_sar.h **** * To convert the result to a voltage, pass the ADC result to \ref Cy_SAR_CountsTo_Volts, \ref Cy_SA
 334:Generated_Source\PSoC6\pdl\drivers/peripheral/sar/cy_sar.h **** * \ref Cy_SAR_CountsTo_uVolts.
 335:Generated_Source\PSoC6\pdl\drivers/peripheral/sar/cy_sar.h **** *
 336:Generated_Source\PSoC6\pdl\drivers/peripheral/sar/cy_sar.h **** * \section group_sar_clock SAR Clock Configuration
 337:Generated_Source\PSoC6\pdl\drivers/peripheral/sar/cy_sar.h **** *
 338:Generated_Source\PSoC6\pdl\drivers/peripheral/sar/cy_sar.h **** * The SAR requires a clock. Assign a clock to the SAR using the
 339:Generated_Source\PSoC6\pdl\drivers/peripheral/sar/cy_sar.h **** * pre-defined enum, PCLK_PASS_CLOCK_SAR, to identify the SAR subsystem.
 340:Generated_Source\PSoC6\pdl\drivers/peripheral/sar/cy_sar.h **** * Set the clock divider value to achieve the desired clock rate. The SAR can support
 341:Generated_Source\PSoC6\pdl\drivers/peripheral/sar/cy_sar.h **** * a maximum frequency of 18 MHz.
 342:Generated_Source\PSoC6\pdl\drivers/peripheral/sar/cy_sar.h **** *
 343:Generated_Source\PSoC6\pdl\drivers/peripheral/sar/cy_sar.h **** * \snippet sar_sut_01.cydsn/main_cm4.c SAR_SNIPPET_CONFIGURE_CLOCK
 344:Generated_Source\PSoC6\pdl\drivers/peripheral/sar/cy_sar.h **** *
 345:Generated_Source\PSoC6\pdl\drivers/peripheral/sar/cy_sar.h **** * \section group_sar_scan_time Scan Rate
 346:Generated_Source\PSoC6\pdl\drivers/peripheral/sar/cy_sar.h **** *
 347:Generated_Source\PSoC6\pdl\drivers/peripheral/sar/cy_sar.h **** * The scan rate is dependent on the following:
 348:Generated_Source\PSoC6\pdl\drivers/peripheral/sar/cy_sar.h **** *
ARM GAS  C:\Users\zinch\AppData\Local\Temp\ccRcQgKK.s 			page 47


 349:Generated_Source\PSoC6\pdl\drivers/peripheral/sar/cy_sar.h **** *   - ADC clock rate
 350:Generated_Source\PSoC6\pdl\drivers/peripheral/sar/cy_sar.h **** *   - Number of channels
 351:Generated_Source\PSoC6\pdl\drivers/peripheral/sar/cy_sar.h **** *   - Averaging
 352:Generated_Source\PSoC6\pdl\drivers/peripheral/sar/cy_sar.h **** *   - Resolution
 353:Generated_Source\PSoC6\pdl\drivers/peripheral/sar/cy_sar.h **** *   - Acquisition times
 354:Generated_Source\PSoC6\pdl\drivers/peripheral/sar/cy_sar.h **** *
 355:Generated_Source\PSoC6\pdl\drivers/peripheral/sar/cy_sar.h **** * \subsection group_sar_acquisition_time Acquisition Time
 356:Generated_Source\PSoC6\pdl\drivers/peripheral/sar/cy_sar.h **** *
 357:Generated_Source\PSoC6\pdl\drivers/peripheral/sar/cy_sar.h **** * The acquisition time of a channel is based on which of the four global aperture times are selecte
 358:Generated_Source\PSoC6\pdl\drivers/peripheral/sar/cy_sar.h **** * channel. The selection is done during initialization per channel with \ref group_sar_init_struct_
 359:Generated_Source\PSoC6\pdl\drivers/peripheral/sar/cy_sar.h **** * The four global aperture times are also set during initialization with \ref group_sar_init_struct
 360:Generated_Source\PSoC6\pdl\drivers/peripheral/sar/cy_sar.h **** * \ref group_sar_init_struct_sampleTime23. Note that these global aperture times are in SAR clock c
 361:Generated_Source\PSoC6\pdl\drivers/peripheral/sar/cy_sar.h **** * acquisition time is 1 less than that value in the register.
 362:Generated_Source\PSoC6\pdl\drivers/peripheral/sar/cy_sar.h **** *
 363:Generated_Source\PSoC6\pdl\drivers/peripheral/sar/cy_sar.h **** * \image html sar_acquisition_time_eqn.png
 364:Generated_Source\PSoC6\pdl\drivers/peripheral/sar/cy_sar.h **** *
 365:Generated_Source\PSoC6\pdl\drivers/peripheral/sar/cy_sar.h **** * \subsection group_sar_channel_sample_time Channel Sample Time
 366:Generated_Source\PSoC6\pdl\drivers/peripheral/sar/cy_sar.h **** *
 367:Generated_Source\PSoC6\pdl\drivers/peripheral/sar/cy_sar.h **** * The sample time for a channel is the time required to acquire the analog signal
 368:Generated_Source\PSoC6\pdl\drivers/peripheral/sar/cy_sar.h **** * and convert it to a digital code.
 369:Generated_Source\PSoC6\pdl\drivers/peripheral/sar/cy_sar.h **** *
 370:Generated_Source\PSoC6\pdl\drivers/peripheral/sar/cy_sar.h **** * \image html sar_channel_sample_time_eqn.png
 371:Generated_Source\PSoC6\pdl\drivers/peripheral/sar/cy_sar.h **** *
 372:Generated_Source\PSoC6\pdl\drivers/peripheral/sar/cy_sar.h **** * The SAR ADC is a 12-bit converter so Resolution = 12.
 373:Generated_Source\PSoC6\pdl\drivers/peripheral/sar/cy_sar.h **** *
 374:Generated_Source\PSoC6\pdl\drivers/peripheral/sar/cy_sar.h **** * \subsection group_sar_total_scan_time Total Scan Time
 375:Generated_Source\PSoC6\pdl\drivers/peripheral/sar/cy_sar.h **** *
 376:Generated_Source\PSoC6\pdl\drivers/peripheral/sar/cy_sar.h **** * Channels using one of the sequential averaging modes (\ref CY_SAR_AVG_MODE_SEQUENTIAL_ACCUM or \r
 377:Generated_Source\PSoC6\pdl\drivers/peripheral/sar/cy_sar.h **** * are sampled multiple times per scan. The number of samples averaged are set during initialization
 378:Generated_Source\PSoC6\pdl\drivers/peripheral/sar/cy_sar.h **** * with \ref group_sar_init_struct_sampleCtrl using one of the values from \ref cy_en_sar_sample_ctr
 379:Generated_Source\PSoC6\pdl\drivers/peripheral/sar/cy_sar.h **** * Channels that are not averaged or use the \ref CY_SAR_AVG_MODE_INTERLEAVED mode are only sampled 
 380:Generated_Source\PSoC6\pdl\drivers/peripheral/sar/cy_sar.h **** *
 381:Generated_Source\PSoC6\pdl\drivers/peripheral/sar/cy_sar.h **** * The total scan time is the sum of each channel's sample time multiplied by the samples per scan.
 382:Generated_Source\PSoC6\pdl\drivers/peripheral/sar/cy_sar.h **** *
 383:Generated_Source\PSoC6\pdl\drivers/peripheral/sar/cy_sar.h **** * \image html sar_scan_rate_eqn.png
 384:Generated_Source\PSoC6\pdl\drivers/peripheral/sar/cy_sar.h **** *
 385:Generated_Source\PSoC6\pdl\drivers/peripheral/sar/cy_sar.h **** * where N is the total number of channels in the scan.
 386:Generated_Source\PSoC6\pdl\drivers/peripheral/sar/cy_sar.h **** *
 387:Generated_Source\PSoC6\pdl\drivers/peripheral/sar/cy_sar.h **** * \section group_sar_sarmux SARMUX and SARSEQ
 388:Generated_Source\PSoC6\pdl\drivers/peripheral/sar/cy_sar.h **** *
 389:Generated_Source\PSoC6\pdl\drivers/peripheral/sar/cy_sar.h **** * The SARMUX is an analog programmable multiplexer. Its switches can be controlled by the SARSEQ or
 390:Generated_Source\PSoC6\pdl\drivers/peripheral/sar/cy_sar.h **** * and the inputs can come from:
 391:Generated_Source\PSoC6\pdl\drivers/peripheral/sar/cy_sar.h **** *   - a dedicated port (can support 8 single-ended channels or 4 differential channels)
 392:Generated_Source\PSoC6\pdl\drivers/peripheral/sar/cy_sar.h **** *   - an internal die temperature (DieTemp) sensor
 393:Generated_Source\PSoC6\pdl\drivers/peripheral/sar/cy_sar.h **** *   - CTB output via SARBUS0/1 (if CTBs are available on the device)
 394:Generated_Source\PSoC6\pdl\drivers/peripheral/sar/cy_sar.h **** *   - AMUXBUSA/B
 395:Generated_Source\PSoC6\pdl\drivers/peripheral/sar/cy_sar.h **** *
 396:Generated_Source\PSoC6\pdl\drivers/peripheral/sar/cy_sar.h **** * The following figure shows the SARMUX switches. See the device datasheet for the exact location o
 397:Generated_Source\PSoC6\pdl\drivers/peripheral/sar/cy_sar.h **** *
 398:Generated_Source\PSoC6\pdl\drivers/peripheral/sar/cy_sar.h **** * \image html sar_sarmux_switches.png
 399:Generated_Source\PSoC6\pdl\drivers/peripheral/sar/cy_sar.h **** *
 400:Generated_Source\PSoC6\pdl\drivers/peripheral/sar/cy_sar.h **** * When using the SARSEQ, the following configurations must be performed:
 401:Generated_Source\PSoC6\pdl\drivers/peripheral/sar/cy_sar.h **** *   - enable SARSEQ control of required switches (see \ref group_sar_init_struct_muxSwitchSqCtrl)
 402:Generated_Source\PSoC6\pdl\drivers/peripheral/sar/cy_sar.h **** *   - close the required switches with firmware (see \ref group_sar_init_struct_muxSwitch)
 403:Generated_Source\PSoC6\pdl\drivers/peripheral/sar/cy_sar.h **** *   - configure the POS_PORT_ADDR and POS_PIN_ADDR, and if used, the NEG_PORT_ADDR and NEG_PIN_ADDR
 404:Generated_Source\PSoC6\pdl\drivers/peripheral/sar/cy_sar.h **** *
 405:Generated_Source\PSoC6\pdl\drivers/peripheral/sar/cy_sar.h **** * While firmware can control every switch in the SARMUX, not every switch can be controlled by the 
